
Subsystem_Program.elf:     file format elf32-avr

Sections:
Idx Name          Size      VMA       LMA       File off  Algn
  0 .text         0000169a  00000000  00000000  00000074  2**1
                  CONTENTS, ALLOC, LOAD, READONLY, CODE
  1 .bss          00000052  00800100  00800100  0000170e  2**0
                  ALLOC
  2 .comment      00000030  00000000  00000000  0000170e  2**0
                  CONTENTS, READONLY

Disassembly of section .text:

00000000 <__vectors>:
       0:	0c 94 49 00 	jmp	0x92	; 0x92 <__ctors_end>
       4:	0c 94 5b 00 	jmp	0xb6	; 0xb6 <__bad_interrupt>
       8:	0c 94 5b 00 	jmp	0xb6	; 0xb6 <__bad_interrupt>
       c:	0c 94 5b 00 	jmp	0xb6	; 0xb6 <__bad_interrupt>
      10:	0c 94 5b 00 	jmp	0xb6	; 0xb6 <__bad_interrupt>
      14:	0c 94 5b 00 	jmp	0xb6	; 0xb6 <__bad_interrupt>
      18:	0c 94 5b 00 	jmp	0xb6	; 0xb6 <__bad_interrupt>
      1c:	0c 94 5b 00 	jmp	0xb6	; 0xb6 <__bad_interrupt>
      20:	0c 94 5b 00 	jmp	0xb6	; 0xb6 <__bad_interrupt>
      24:	0c 94 5b 00 	jmp	0xb6	; 0xb6 <__bad_interrupt>
      28:	0c 94 5b 00 	jmp	0xb6	; 0xb6 <__bad_interrupt>
      2c:	0c 94 5b 00 	jmp	0xb6	; 0xb6 <__bad_interrupt>
      30:	0c 94 3b 08 	jmp	0x1076	; 0x1076 <__vector_12>
      34:	0c 94 5b 00 	jmp	0xb6	; 0xb6 <__bad_interrupt>
      38:	0c 94 5b 00 	jmp	0xb6	; 0xb6 <__bad_interrupt>
      3c:	0c 94 5b 00 	jmp	0xb6	; 0xb6 <__bad_interrupt>
      40:	0c 94 5b 00 	jmp	0xb6	; 0xb6 <__bad_interrupt>
      44:	0c 94 5b 00 	jmp	0xb6	; 0xb6 <__bad_interrupt>
      48:	0c 94 5b 00 	jmp	0xb6	; 0xb6 <__bad_interrupt>
      4c:	0c 94 5b 00 	jmp	0xb6	; 0xb6 <__bad_interrupt>
      50:	0c 94 5b 00 	jmp	0xb6	; 0xb6 <__bad_interrupt>
      54:	0c 94 5b 00 	jmp	0xb6	; 0xb6 <__bad_interrupt>
      58:	0c 94 5b 00 	jmp	0xb6	; 0xb6 <__bad_interrupt>
      5c:	0c 94 5b 00 	jmp	0xb6	; 0xb6 <__bad_interrupt>
      60:	0c 94 5b 00 	jmp	0xb6	; 0xb6 <__bad_interrupt>
      64:	0c 94 5b 00 	jmp	0xb6	; 0xb6 <__bad_interrupt>
      68:	0c 94 5b 00 	jmp	0xb6	; 0xb6 <__bad_interrupt>
      6c:	0c 94 5b 00 	jmp	0xb6	; 0xb6 <__bad_interrupt>
      70:	0c 94 5b 00 	jmp	0xb6	; 0xb6 <__bad_interrupt>
      74:	0c 94 5b 00 	jmp	0xb6	; 0xb6 <__bad_interrupt>
      78:	0c 94 5b 00 	jmp	0xb6	; 0xb6 <__bad_interrupt>
      7c:	6e 01       	movw	r12, r28
      7e:	d7 01       	movw	r26, r14
      80:	48 02       	muls	r20, r24
      82:	99 02       	muls	r25, r25
      84:	ce 02       	muls	r28, r30
      86:	33 03       	mulsu	r19, r19
      88:	99 03       	fmulsu	r17, r17
      8a:	19 04       	cpc	r1, r9
      8c:	9f 04       	cpc	r9, r15
      8e:	6c 01       	movw	r12, r24
      90:	7b 05       	cpc	r23, r11

00000092 <__ctors_end>:
      92:	11 24       	eor	r1, r1
      94:	1f be       	out	0x3f, r1	; 63
      96:	cf ef       	ldi	r28, 0xFF	; 255
      98:	d8 e0       	ldi	r29, 0x08	; 8
      9a:	de bf       	out	0x3e, r29	; 62
      9c:	cd bf       	out	0x3d, r28	; 61

0000009e <__do_clear_bss>:
      9e:	21 e0       	ldi	r18, 0x01	; 1
      a0:	a0 e0       	ldi	r26, 0x00	; 0
      a2:	b1 e0       	ldi	r27, 0x01	; 1
      a4:	01 c0       	rjmp	.+2      	; 0xa8 <.do_clear_bss_start>

000000a6 <.do_clear_bss_loop>:
      a6:	1d 92       	st	X+, r1

000000a8 <.do_clear_bss_start>:
      a8:	a2 35       	cpi	r26, 0x52	; 82
      aa:	b2 07       	cpc	r27, r18
      ac:	e1 f7       	brne	.-8      	; 0xa6 <.do_clear_bss_loop>
      ae:	0e 94 32 07 	call	0xe64	; 0xe64 <main>
      b2:	0c 94 4b 0b 	jmp	0x1696	; 0x1696 <_exit>

000000b6 <__bad_interrupt>:
      b6:	0c 94 00 00 	jmp	0	; 0x0 <__vectors>

000000ba <adc_initialize>:
      ba:	82 e0       	ldi	r24, 0x02	; 2
      bc:	80 93 7c 00 	sts	0x007C, r24
      c0:	82 ee       	ldi	r24, 0xE2	; 226
      c2:	80 93 7a 00 	sts	0x007A, r24
      c6:	80 ea       	ldi	r24, 0xA0	; 160
      c8:	80 93 7b 00 	sts	0x007B, r24
      cc:	08 95       	ret

000000ce <adc_read>:
      ce:	e8 e7       	ldi	r30, 0x78	; 120
      d0:	f0 e0       	ldi	r31, 0x00	; 0
      d2:	20 81       	ld	r18, Z
      d4:	dc 01       	movw	r26, r24
      d6:	2c 93       	st	X, r18
      d8:	21 81       	ldd	r18, Z+1	; 0x01
      da:	11 96       	adiw	r26, 0x01	; 1
      dc:	2c 93       	st	X, r18
      de:	08 95       	ret

000000e0 <can_send_message>:
      e0:	28 e1       	ldi	r18, 0x18	; 24
      e2:	31 e0       	ldi	r19, 0x01	; 1
      e4:	30 93 28 01 	sts	0x0128, r19
      e8:	20 93 27 01 	sts	0x0127, r18
      ec:	10 92 2b 01 	sts	0x012B, r1
      f0:	70 e0       	ldi	r23, 0x00	; 0
      f2:	70 93 23 01 	sts	0x0123, r23
      f6:	60 93 22 01 	sts	0x0122, r22
      fa:	22 e0       	ldi	r18, 0x02	; 2
      fc:	20 93 21 01 	sts	0x0121, r18
     100:	28 e0       	ldi	r18, 0x08	; 8
     102:	20 93 26 01 	sts	0x0126, r18
     106:	24 e0       	ldi	r18, 0x04	; 4
     108:	20 93 4f 01 	sts	0x014F, r18
     10c:	e8 e1       	ldi	r30, 0x18	; 24
     10e:	f1 e0       	ldi	r31, 0x01	; 1
     110:	dc 01       	movw	r26, r24
     112:	2d 91       	ld	r18, X+
     114:	cd 01       	movw	r24, r26
     116:	21 93       	st	Z+, r18
     118:	b1 e0       	ldi	r27, 0x01	; 1
     11a:	e0 32       	cpi	r30, 0x20	; 32
     11c:	fb 07       	cpc	r31, r27
     11e:	c1 f7       	brne	.-16     	; 0x110 <can_send_message+0x30>
     120:	60 91 4f 01 	lds	r22, 0x014F
     124:	80 e2       	ldi	r24, 0x20	; 32
     126:	91 e0       	ldi	r25, 0x01	; 1
     128:	0e 94 2c 01 	call	0x258	; 0x258 <can_cmd>
     12c:	81 11       	cpse	r24, r1
     12e:	f8 cf       	rjmp	.-16     	; 0x120 <can_send_message+0x40>
     130:	60 91 4f 01 	lds	r22, 0x014F
     134:	80 e2       	ldi	r24, 0x20	; 32
     136:	91 e0       	ldi	r25, 0x01	; 1
     138:	0e 94 30 06 	call	0xc60	; 0xc60 <can_get_status>
     13c:	81 30       	cpi	r24, 0x01	; 1
     13e:	c1 f3       	breq	.-16     	; 0x130 <can_send_message+0x50>
     140:	08 95       	ret

00000142 <can_init_mobs>:
     142:	8d e2       	ldi	r24, 0x2D	; 45
     144:	91 e0       	ldi	r25, 0x01	; 1
     146:	90 93 28 01 	sts	0x0128, r25
     14a:	80 93 27 01 	sts	0x0127, r24
     14e:	10 92 2b 01 	sts	0x012B, r1
     152:	84 e1       	ldi	r24, 0x14	; 20
     154:	90 e0       	ldi	r25, 0x00	; 0
     156:	90 93 23 01 	sts	0x0123, r25
     15a:	80 93 22 01 	sts	0x0122, r24
     15e:	85 e0       	ldi	r24, 0x05	; 5
     160:	80 93 21 01 	sts	0x0121, r24
     164:	88 e0       	ldi	r24, 0x08	; 8
     166:	80 93 26 01 	sts	0x0126, r24
     16a:	10 92 4f 01 	sts	0x014F, r1
     16e:	60 91 4f 01 	lds	r22, 0x014F
     172:	80 e2       	ldi	r24, 0x20	; 32
     174:	91 e0       	ldi	r25, 0x01	; 1
     176:	0e 94 2c 01 	call	0x258	; 0x258 <can_cmd>
     17a:	81 11       	cpse	r24, r1
     17c:	f8 cf       	rjmp	.-16     	; 0x16e <can_init_mobs+0x2c>
     17e:	87 e4       	ldi	r24, 0x47	; 71
     180:	91 e0       	ldi	r25, 0x01	; 1
     182:	90 93 28 01 	sts	0x0128, r25
     186:	80 93 27 01 	sts	0x0127, r24
     18a:	10 92 2b 01 	sts	0x012B, r1
     18e:	89 e1       	ldi	r24, 0x19	; 25
     190:	90 e0       	ldi	r25, 0x00	; 0
     192:	90 93 23 01 	sts	0x0123, r25
     196:	80 93 22 01 	sts	0x0122, r24
     19a:	85 e0       	ldi	r24, 0x05	; 5
     19c:	80 93 21 01 	sts	0x0121, r24
     1a0:	98 e0       	ldi	r25, 0x08	; 8
     1a2:	90 93 26 01 	sts	0x0126, r25
     1a6:	80 93 4f 01 	sts	0x014F, r24
     1aa:	60 91 4f 01 	lds	r22, 0x014F
     1ae:	80 e2       	ldi	r24, 0x20	; 32
     1b0:	91 e0       	ldi	r25, 0x01	; 1
     1b2:	0e 94 2c 01 	call	0x258	; 0x258 <can_cmd>
     1b6:	81 11       	cpse	r24, r1
     1b8:	f8 cf       	rjmp	.-16     	; 0x1aa <can_init_mobs+0x68>
     1ba:	08 95       	ret

000001bc <can_clear_all_mob>:
     1bc:	80 e0       	ldi	r24, 0x00	; 0
     1be:	98 2f       	mov	r25, r24
     1c0:	92 95       	swap	r25
     1c2:	90 7f       	andi	r25, 0xF0	; 240
     1c4:	90 93 ed 00 	sts	0x00ED, r25
     1c8:	ee ee       	ldi	r30, 0xEE	; 238
     1ca:	f0 e0       	ldi	r31, 0x00	; 0
     1cc:	11 92       	st	Z+, r1
     1ce:	e8 3f       	cpi	r30, 0xF8	; 248
     1d0:	f1 05       	cpc	r31, r1
     1d2:	e1 f7       	brne	.-8      	; 0x1cc <can_clear_all_mob+0x10>
     1d4:	8f 5f       	subi	r24, 0xFF	; 255
     1d6:	86 30       	cpi	r24, 0x06	; 6
     1d8:	91 f7       	brne	.-28     	; 0x1be <can_clear_all_mob+0x2>
     1da:	08 95       	ret

000001dc <can_get_mob_status>:
     1dc:	80 91 ef 00 	lds	r24, 0x00EF
     1e0:	80 7c       	andi	r24, 0xC0	; 192
     1e2:	61 f0       	breq	.+24     	; 0x1fc <can_get_mob_status+0x20>
     1e4:	80 91 ee 00 	lds	r24, 0x00EE
     1e8:	98 2f       	mov	r25, r24
     1ea:	90 7e       	andi	r25, 0xE0	; 224
     1ec:	90 32       	cpi	r25, 0x20	; 32
     1ee:	41 f0       	breq	.+16     	; 0x200 <can_get_mob_status+0x24>
     1f0:	90 34       	cpi	r25, 0x40	; 64
     1f2:	41 f0       	breq	.+16     	; 0x204 <can_get_mob_status+0x28>
     1f4:	90 3a       	cpi	r25, 0xA0	; 160
     1f6:	41 f0       	breq	.+16     	; 0x208 <can_get_mob_status+0x2c>
     1f8:	8f 71       	andi	r24, 0x1F	; 31
     1fa:	08 95       	ret
     1fc:	8f ef       	ldi	r24, 0xFF	; 255
     1fe:	08 95       	ret
     200:	80 e2       	ldi	r24, 0x20	; 32
     202:	08 95       	ret
     204:	80 e4       	ldi	r24, 0x40	; 64
     206:	08 95       	ret
     208:	80 ea       	ldi	r24, 0xA0	; 160
     20a:	08 95       	ret

0000020c <can_get_data>:
     20c:	28 e0       	ldi	r18, 0x08	; 8
     20e:	30 91 fa 00 	lds	r19, 0x00FA
     212:	fc 01       	movw	r30, r24
     214:	31 93       	st	Z+, r19
     216:	cf 01       	movw	r24, r30
     218:	21 50       	subi	r18, 0x01	; 1
     21a:	c9 f7       	brne	.-14     	; 0x20e <can_get_data+0x2>
     21c:	08 95       	ret

0000021e <can_fixed_baudrate>:
     21e:	81 e0       	ldi	r24, 0x01	; 1
     220:	80 93 d8 00 	sts	0x00D8, r24
     224:	82 e0       	ldi	r24, 0x02	; 2
     226:	80 93 e2 00 	sts	0x00E2, r24
     22a:	8c e0       	ldi	r24, 0x0C	; 12
     22c:	80 93 e3 00 	sts	0x00E3, r24
     230:	87 e3       	ldi	r24, 0x37	; 55
     232:	80 93 e4 00 	sts	0x00E4, r24
     236:	81 e0       	ldi	r24, 0x01	; 1
     238:	08 95       	ret

0000023a <can_init>:
     23a:	0e 94 0f 01 	call	0x21e	; 0x21e <can_fixed_baudrate>
     23e:	88 23       	and	r24, r24
     240:	49 f0       	breq	.+18     	; 0x254 <can_init+0x1a>
     242:	0e 94 de 00 	call	0x1bc	; 0x1bc <can_clear_all_mob>
     246:	80 91 d8 00 	lds	r24, 0x00D8
     24a:	82 60       	ori	r24, 0x02	; 2
     24c:	80 93 d8 00 	sts	0x00D8, r24
     250:	81 e0       	ldi	r24, 0x01	; 1
     252:	08 95       	ret
     254:	80 e0       	ldi	r24, 0x00	; 0
     256:	08 95       	ret

00000258 <can_cmd>:
     258:	0f 93       	push	r16
     25a:	1f 93       	push	r17
     25c:	cf 93       	push	r28
     25e:	df 93       	push	r29
     260:	1f 92       	push	r1
     262:	cd b7       	in	r28, 0x3d	; 61
     264:	de b7       	in	r29, 0x3e	; 62
     266:	8c 01       	movw	r16, r24
     268:	fc 01       	movw	r30, r24
     26a:	81 81       	ldd	r24, Z+1	; 0x01
     26c:	8c 30       	cpi	r24, 0x0C	; 12
     26e:	91 f4       	brne	.+36     	; 0x294 <can_cmd+0x3c>
     270:	81 85       	ldd	r24, Z+9	; 0x09
     272:	80 36       	cpi	r24, 0x60	; 96
     274:	09 f0       	breq	.+2      	; 0x278 <can_cmd+0x20>
     276:	e7 c4       	rjmp	.+2510   	; 0xc46 <__stack+0x347>
     278:	86 2f       	mov	r24, r22
     27a:	82 95       	swap	r24
     27c:	80 7f       	andi	r24, 0xF0	; 240
     27e:	80 93 ed 00 	sts	0x00ED, r24
     282:	80 91 ef 00 	lds	r24, 0x00EF
     286:	8f 73       	andi	r24, 0x3F	; 63
     288:	80 93 ef 00 	sts	0x00EF, r24
     28c:	10 92 ee 00 	sts	0x00EE, r1
     290:	60 83       	st	Z, r22
     292:	d9 c4       	rjmp	.+2482   	; 0xc46 <__stack+0x347>
     294:	86 2f       	mov	r24, r22
     296:	82 95       	swap	r24
     298:	80 7f       	andi	r24, 0xF0	; 240
     29a:	80 93 ed 00 	sts	0x00ED, r24
     29e:	80 91 ef 00 	lds	r24, 0x00EF
     2a2:	80 7c       	andi	r24, 0xC0	; 192
     2a4:	09 f0       	breq	.+2      	; 0x2a8 <can_cmd+0x50>
     2a6:	d2 c4       	rjmp	.+2468   	; 0xc4c <__stack+0x34d>
     2a8:	80 e6       	ldi	r24, 0x60	; 96
     2aa:	f8 01       	movw	r30, r16
     2ac:	81 87       	std	Z+9, r24	; 0x09
     2ae:	60 83       	st	Z, r22
     2b0:	ae ee       	ldi	r26, 0xEE	; 238
     2b2:	b0 e0       	ldi	r27, 0x00	; 0
     2b4:	1d 92       	st	X+, r1
     2b6:	a8 3f       	cpi	r26, 0xF8	; 248
     2b8:	b1 05       	cpc	r27, r1
     2ba:	e1 f7       	brne	.-8      	; 0x2b4 <can_cmd+0x5c>
     2bc:	f8 01       	movw	r30, r16
     2be:	41 81       	ldd	r20, Z+1	; 0x01
     2c0:	50 e0       	ldi	r21, 0x00	; 0
     2c2:	41 50       	subi	r20, 0x01	; 1
     2c4:	51 09       	sbc	r21, r1
     2c6:	4b 30       	cpi	r20, 0x0B	; 11
     2c8:	51 05       	cpc	r21, r1
     2ca:	08 f0       	brcs	.+2      	; 0x2ce <can_cmd+0x76>
     2cc:	bc c4       	rjmp	.+2424   	; 0xc46 <__stack+0x347>
     2ce:	42 5c       	subi	r20, 0xC2	; 194
     2d0:	5f 4f       	sbci	r21, 0xFF	; 255
     2d2:	fa 01       	movw	r30, r20
     2d4:	0c 94 31 0b 	jmp	0x1662	; 0x1662 <__tablejump2__>
     2d8:	80 e0       	ldi	r24, 0x00	; 0
     2da:	bb c3       	rjmp	.+1910   	; 0xa52 <__stack+0x153>
     2dc:	f8 01       	movw	r30, r16
     2de:	83 85       	ldd	r24, Z+11	; 0x0b
     2e0:	88 23       	and	r24, r24
     2e2:	71 f1       	breq	.+92     	; 0x340 <can_cmd+0xe8>
     2e4:	84 81       	ldd	r24, Z+4	; 0x04
     2e6:	82 95       	swap	r24
     2e8:	86 95       	lsr	r24
     2ea:	87 70       	andi	r24, 0x07	; 7
     2ec:	95 81       	ldd	r25, Z+5	; 0x05
     2ee:	f8 e0       	ldi	r31, 0x08	; 8
     2f0:	9f 9f       	mul	r25, r31
     2f2:	80 0d       	add	r24, r0
     2f4:	11 24       	eor	r1, r1
     2f6:	80 93 f3 00 	sts	0x00F3, r24
     2fa:	f8 01       	movw	r30, r16
     2fc:	83 81       	ldd	r24, Z+3	; 0x03
     2fe:	82 95       	swap	r24
     300:	86 95       	lsr	r24
     302:	87 70       	andi	r24, 0x07	; 7
     304:	94 81       	ldd	r25, Z+4	; 0x04
     306:	f8 e0       	ldi	r31, 0x08	; 8
     308:	9f 9f       	mul	r25, r31
     30a:	80 0d       	add	r24, r0
     30c:	11 24       	eor	r1, r1
     30e:	80 93 f2 00 	sts	0x00F2, r24
     312:	f8 01       	movw	r30, r16
     314:	82 81       	ldd	r24, Z+2	; 0x02
     316:	82 95       	swap	r24
     318:	86 95       	lsr	r24
     31a:	87 70       	andi	r24, 0x07	; 7
     31c:	93 81       	ldd	r25, Z+3	; 0x03
     31e:	f8 e0       	ldi	r31, 0x08	; 8
     320:	9f 9f       	mul	r25, r31
     322:	80 0d       	add	r24, r0
     324:	11 24       	eor	r1, r1
     326:	80 93 f1 00 	sts	0x00F1, r24
     32a:	f8 01       	movw	r30, r16
     32c:	82 81       	ldd	r24, Z+2	; 0x02
     32e:	88 0f       	add	r24, r24
     330:	88 0f       	add	r24, r24
     332:	88 0f       	add	r24, r24
     334:	80 93 f0 00 	sts	0x00F0, r24
     338:	80 91 ef 00 	lds	r24, 0x00EF
     33c:	80 61       	ori	r24, 0x10	; 16
     33e:	16 c0       	rjmp	.+44     	; 0x36c <can_cmd+0x114>
     340:	f8 01       	movw	r30, r16
     342:	82 81       	ldd	r24, Z+2	; 0x02
     344:	86 95       	lsr	r24
     346:	86 95       	lsr	r24
     348:	86 95       	lsr	r24
     34a:	93 81       	ldd	r25, Z+3	; 0x03
     34c:	f0 e2       	ldi	r31, 0x20	; 32
     34e:	9f 9f       	mul	r25, r31
     350:	80 0d       	add	r24, r0
     352:	11 24       	eor	r1, r1
     354:	80 93 f3 00 	sts	0x00F3, r24
     358:	f8 01       	movw	r30, r16
     35a:	82 81       	ldd	r24, Z+2	; 0x02
     35c:	82 95       	swap	r24
     35e:	88 0f       	add	r24, r24
     360:	80 7e       	andi	r24, 0xE0	; 224
     362:	80 93 f2 00 	sts	0x00F2, r24
     366:	80 91 ef 00 	lds	r24, 0x00EF
     36a:	8f 7e       	andi	r24, 0xEF	; 239
     36c:	80 93 ef 00 	sts	0x00EF, r24
     370:	80 e0       	ldi	r24, 0x00	; 0
     372:	f8 01       	movw	r30, r16
     374:	96 81       	ldd	r25, Z+6	; 0x06
     376:	89 17       	cp	r24, r25
     378:	50 f4       	brcc	.+20     	; 0x38e <can_cmd+0x136>
     37a:	f8 01       	movw	r30, r16
     37c:	a7 81       	ldd	r26, Z+7	; 0x07
     37e:	b0 85       	ldd	r27, Z+8	; 0x08
     380:	a8 0f       	add	r26, r24
     382:	b1 1d       	adc	r27, r1
     384:	9c 91       	ld	r25, X
     386:	90 93 fa 00 	sts	0x00FA, r25
     38a:	8f 5f       	subi	r24, 0xFF	; 255
     38c:	f2 cf       	rjmp	.-28     	; 0x372 <can_cmd+0x11a>
     38e:	82 85       	ldd	r24, Z+10	; 0x0a
     390:	88 23       	and	r24, r24
     392:	21 f0       	breq	.+8      	; 0x39c <can_cmd+0x144>
     394:	80 91 f0 00 	lds	r24, 0x00F0
     398:	84 60       	ori	r24, 0x04	; 4
     39a:	03 c0       	rjmp	.+6      	; 0x3a2 <can_cmd+0x14a>
     39c:	80 91 f0 00 	lds	r24, 0x00F0
     3a0:	8b 7f       	andi	r24, 0xFB	; 251
     3a2:	80 93 f0 00 	sts	0x00F0, r24
     3a6:	80 91 ef 00 	lds	r24, 0x00EF
     3aa:	f8 01       	movw	r30, r16
     3ac:	61 c0       	rjmp	.+194    	; 0x470 <can_cmd+0x218>
     3ae:	f8 01       	movw	r30, r16
     3b0:	83 85       	ldd	r24, Z+11	; 0x0b
     3b2:	88 23       	and	r24, r24
     3b4:	71 f1       	breq	.+92     	; 0x412 <can_cmd+0x1ba>
     3b6:	84 81       	ldd	r24, Z+4	; 0x04
     3b8:	82 95       	swap	r24
     3ba:	86 95       	lsr	r24
     3bc:	87 70       	andi	r24, 0x07	; 7
     3be:	95 81       	ldd	r25, Z+5	; 0x05
     3c0:	f8 e0       	ldi	r31, 0x08	; 8
     3c2:	9f 9f       	mul	r25, r31
     3c4:	80 0d       	add	r24, r0
     3c6:	11 24       	eor	r1, r1
     3c8:	80 93 f3 00 	sts	0x00F3, r24
     3cc:	f8 01       	movw	r30, r16
     3ce:	83 81       	ldd	r24, Z+3	; 0x03
     3d0:	82 95       	swap	r24
     3d2:	86 95       	lsr	r24
     3d4:	87 70       	andi	r24, 0x07	; 7
     3d6:	94 81       	ldd	r25, Z+4	; 0x04
     3d8:	f8 e0       	ldi	r31, 0x08	; 8
     3da:	9f 9f       	mul	r25, r31
     3dc:	80 0d       	add	r24, r0
     3de:	11 24       	eor	r1, r1
     3e0:	80 93 f2 00 	sts	0x00F2, r24
     3e4:	f8 01       	movw	r30, r16
     3e6:	82 81       	ldd	r24, Z+2	; 0x02
     3e8:	82 95       	swap	r24
     3ea:	86 95       	lsr	r24
     3ec:	87 70       	andi	r24, 0x07	; 7
     3ee:	93 81       	ldd	r25, Z+3	; 0x03
     3f0:	f8 e0       	ldi	r31, 0x08	; 8
     3f2:	9f 9f       	mul	r25, r31
     3f4:	80 0d       	add	r24, r0
     3f6:	11 24       	eor	r1, r1
     3f8:	80 93 f1 00 	sts	0x00F1, r24
     3fc:	f8 01       	movw	r30, r16
     3fe:	82 81       	ldd	r24, Z+2	; 0x02
     400:	88 0f       	add	r24, r24
     402:	88 0f       	add	r24, r24
     404:	88 0f       	add	r24, r24
     406:	80 93 f0 00 	sts	0x00F0, r24
     40a:	80 91 ef 00 	lds	r24, 0x00EF
     40e:	80 61       	ori	r24, 0x10	; 16
     410:	16 c0       	rjmp	.+44     	; 0x43e <can_cmd+0x1e6>
     412:	f8 01       	movw	r30, r16
     414:	82 81       	ldd	r24, Z+2	; 0x02
     416:	86 95       	lsr	r24
     418:	86 95       	lsr	r24
     41a:	86 95       	lsr	r24
     41c:	93 81       	ldd	r25, Z+3	; 0x03
     41e:	f0 e2       	ldi	r31, 0x20	; 32
     420:	9f 9f       	mul	r25, r31
     422:	80 0d       	add	r24, r0
     424:	11 24       	eor	r1, r1
     426:	80 93 f3 00 	sts	0x00F3, r24
     42a:	f8 01       	movw	r30, r16
     42c:	82 81       	ldd	r24, Z+2	; 0x02
     42e:	82 95       	swap	r24
     430:	88 0f       	add	r24, r24
     432:	80 7e       	andi	r24, 0xE0	; 224
     434:	80 93 f2 00 	sts	0x00F2, r24
     438:	80 91 ef 00 	lds	r24, 0x00EF
     43c:	8f 7e       	andi	r24, 0xEF	; 239
     43e:	80 93 ef 00 	sts	0x00EF, r24
     442:	80 e0       	ldi	r24, 0x00	; 0
     444:	f8 01       	movw	r30, r16
     446:	96 81       	ldd	r25, Z+6	; 0x06
     448:	89 17       	cp	r24, r25
     44a:	50 f4       	brcc	.+20     	; 0x460 <can_cmd+0x208>
     44c:	f8 01       	movw	r30, r16
     44e:	a7 81       	ldd	r26, Z+7	; 0x07
     450:	b0 85       	ldd	r27, Z+8	; 0x08
     452:	a8 0f       	add	r26, r24
     454:	b1 1d       	adc	r27, r1
     456:	9c 91       	ld	r25, X
     458:	90 93 fa 00 	sts	0x00FA, r25
     45c:	8f 5f       	subi	r24, 0xFF	; 255
     45e:	f2 cf       	rjmp	.-28     	; 0x444 <can_cmd+0x1ec>
     460:	12 86       	std	Z+10, r1	; 0x0a
     462:	80 91 f0 00 	lds	r24, 0x00F0
     466:	8b 7f       	andi	r24, 0xFB	; 251
     468:	80 93 f0 00 	sts	0x00F0, r24
     46c:	80 91 ef 00 	lds	r24, 0x00EF
     470:	96 81       	ldd	r25, Z+6	; 0x06
     472:	89 2b       	or	r24, r25
     474:	80 93 ef 00 	sts	0x00EF, r24
     478:	80 91 ef 00 	lds	r24, 0x00EF
     47c:	8f 73       	andi	r24, 0x3F	; 63
     47e:	80 93 ef 00 	sts	0x00EF, r24
     482:	80 91 ef 00 	lds	r24, 0x00EF
     486:	80 64       	ori	r24, 0x40	; 64
     488:	80 93 ef 00 	sts	0x00EF, r24
     48c:	80 e0       	ldi	r24, 0x00	; 0
     48e:	e2 c3       	rjmp	.+1988   	; 0xc54 <__stack+0x355>
     490:	f8 01       	movw	r30, r16
     492:	83 85       	ldd	r24, Z+11	; 0x0b
     494:	88 23       	and	r24, r24
     496:	71 f1       	breq	.+92     	; 0x4f4 <can_cmd+0x29c>
     498:	84 81       	ldd	r24, Z+4	; 0x04
     49a:	82 95       	swap	r24
     49c:	86 95       	lsr	r24
     49e:	87 70       	andi	r24, 0x07	; 7
     4a0:	95 81       	ldd	r25, Z+5	; 0x05
     4a2:	f8 e0       	ldi	r31, 0x08	; 8
     4a4:	9f 9f       	mul	r25, r31
     4a6:	80 0d       	add	r24, r0
     4a8:	11 24       	eor	r1, r1
     4aa:	80 93 f3 00 	sts	0x00F3, r24
     4ae:	f8 01       	movw	r30, r16
     4b0:	83 81       	ldd	r24, Z+3	; 0x03
     4b2:	82 95       	swap	r24
     4b4:	86 95       	lsr	r24
     4b6:	87 70       	andi	r24, 0x07	; 7
     4b8:	94 81       	ldd	r25, Z+4	; 0x04
     4ba:	f8 e0       	ldi	r31, 0x08	; 8
     4bc:	9f 9f       	mul	r25, r31
     4be:	80 0d       	add	r24, r0
     4c0:	11 24       	eor	r1, r1
     4c2:	80 93 f2 00 	sts	0x00F2, r24
     4c6:	f8 01       	movw	r30, r16
     4c8:	82 81       	ldd	r24, Z+2	; 0x02
     4ca:	82 95       	swap	r24
     4cc:	86 95       	lsr	r24
     4ce:	87 70       	andi	r24, 0x07	; 7
     4d0:	93 81       	ldd	r25, Z+3	; 0x03
     4d2:	f8 e0       	ldi	r31, 0x08	; 8
     4d4:	9f 9f       	mul	r25, r31
     4d6:	80 0d       	add	r24, r0
     4d8:	11 24       	eor	r1, r1
     4da:	80 93 f1 00 	sts	0x00F1, r24
     4de:	f8 01       	movw	r30, r16
     4e0:	82 81       	ldd	r24, Z+2	; 0x02
     4e2:	88 0f       	add	r24, r24
     4e4:	88 0f       	add	r24, r24
     4e6:	88 0f       	add	r24, r24
     4e8:	80 93 f0 00 	sts	0x00F0, r24
     4ec:	80 91 ef 00 	lds	r24, 0x00EF
     4f0:	80 61       	ori	r24, 0x10	; 16
     4f2:	16 c0       	rjmp	.+44     	; 0x520 <can_cmd+0x2c8>
     4f4:	f8 01       	movw	r30, r16
     4f6:	82 81       	ldd	r24, Z+2	; 0x02
     4f8:	86 95       	lsr	r24
     4fa:	86 95       	lsr	r24
     4fc:	86 95       	lsr	r24
     4fe:	93 81       	ldd	r25, Z+3	; 0x03
     500:	f0 e2       	ldi	r31, 0x20	; 32
     502:	9f 9f       	mul	r25, r31
     504:	80 0d       	add	r24, r0
     506:	11 24       	eor	r1, r1
     508:	80 93 f3 00 	sts	0x00F3, r24
     50c:	f8 01       	movw	r30, r16
     50e:	82 81       	ldd	r24, Z+2	; 0x02
     510:	82 95       	swap	r24
     512:	88 0f       	add	r24, r24
     514:	80 7e       	andi	r24, 0xE0	; 224
     516:	80 93 f2 00 	sts	0x00F2, r24
     51a:	80 91 ef 00 	lds	r24, 0x00EF
     51e:	8f 7e       	andi	r24, 0xEF	; 239
     520:	80 93 ef 00 	sts	0x00EF, r24
     524:	81 e0       	ldi	r24, 0x01	; 1
     526:	f8 01       	movw	r30, r16
     528:	82 87       	std	Z+10, r24	; 0x0a
     52a:	80 91 f0 00 	lds	r24, 0x00F0
     52e:	84 60       	ori	r24, 0x04	; 4
     530:	9b cf       	rjmp	.-202    	; 0x468 <can_cmd+0x210>
     532:	19 82       	std	Y+1, r1	; 0x01
     534:	8b 81       	ldd	r24, Y+3	; 0x03
     536:	82 95       	swap	r24
     538:	86 95       	lsr	r24
     53a:	87 70       	andi	r24, 0x07	; 7
     53c:	9c 81       	ldd	r25, Y+4	; 0x04
     53e:	f8 e0       	ldi	r31, 0x08	; 8
     540:	9f 9f       	mul	r25, r31
     542:	80 0d       	add	r24, r0
     544:	11 24       	eor	r1, r1
     546:	80 93 f7 00 	sts	0x00F7, r24
     54a:	8a 81       	ldd	r24, Y+2	; 0x02
     54c:	82 95       	swap	r24
     54e:	86 95       	lsr	r24
     550:	87 70       	andi	r24, 0x07	; 7
     552:	9b 81       	ldd	r25, Y+3	; 0x03
     554:	28 e0       	ldi	r18, 0x08	; 8
     556:	92 9f       	mul	r25, r18
     558:	80 0d       	add	r24, r0
     55a:	11 24       	eor	r1, r1
     55c:	80 93 f6 00 	sts	0x00F6, r24
     560:	89 81       	ldd	r24, Y+1	; 0x01
     562:	82 95       	swap	r24
     564:	86 95       	lsr	r24
     566:	87 70       	andi	r24, 0x07	; 7
     568:	9a 81       	ldd	r25, Y+2	; 0x02
     56a:	e8 e0       	ldi	r30, 0x08	; 8
     56c:	9e 9f       	mul	r25, r30
     56e:	80 0d       	add	r24, r0
     570:	11 24       	eor	r1, r1
     572:	80 93 f5 00 	sts	0x00F5, r24
     576:	89 81       	ldd	r24, Y+1	; 0x01
     578:	88 0f       	add	r24, r24
     57a:	88 0f       	add	r24, r24
     57c:	88 0f       	add	r24, r24
     57e:	80 93 f4 00 	sts	0x00F4, r24
     582:	80 91 ef 00 	lds	r24, 0x00EF
     586:	f8 01       	movw	r30, r16
     588:	96 81       	ldd	r25, Z+6	; 0x06
     58a:	89 2b       	or	r24, r25
     58c:	80 93 ef 00 	sts	0x00EF, r24
     590:	80 91 f4 00 	lds	r24, 0x00F4
     594:	8b 7f       	andi	r24, 0xFB	; 251
     596:	80 93 f4 00 	sts	0x00F4, r24
     59a:	a9 c2       	rjmp	.+1362   	; 0xaee <__stack+0x1ef>
     59c:	8f ef       	ldi	r24, 0xFF	; 255
     59e:	89 83       	std	Y+1, r24	; 0x01
     5a0:	8a 81       	ldd	r24, Y+2	; 0x02
     5a2:	82 95       	swap	r24
     5a4:	88 0f       	add	r24, r24
     5a6:	80 7e       	andi	r24, 0xE0	; 224
     5a8:	81 5e       	subi	r24, 0xE1	; 225
     5aa:	80 93 f7 00 	sts	0x00F7, r24
     5ae:	89 81       	ldd	r24, Y+1	; 0x01
     5b0:	82 95       	swap	r24
     5b2:	88 0f       	add	r24, r24
     5b4:	80 7e       	andi	r24, 0xE0	; 224
     5b6:	80 93 f6 00 	sts	0x00F6, r24
     5ba:	f8 01       	movw	r30, r16
     5bc:	82 81       	ldd	r24, Z+2	; 0x02
     5be:	86 95       	lsr	r24
     5c0:	86 95       	lsr	r24
     5c2:	86 95       	lsr	r24
     5c4:	93 81       	ldd	r25, Z+3	; 0x03
     5c6:	f0 e2       	ldi	r31, 0x20	; 32
     5c8:	9f 9f       	mul	r25, r31
     5ca:	80 0d       	add	r24, r0
     5cc:	11 24       	eor	r1, r1
     5ce:	80 93 f3 00 	sts	0x00F3, r24
     5d2:	f8 01       	movw	r30, r16
     5d4:	82 81       	ldd	r24, Z+2	; 0x02
     5d6:	82 95       	swap	r24
     5d8:	88 0f       	add	r24, r24
     5da:	80 7e       	andi	r24, 0xE0	; 224
     5dc:	80 93 f2 00 	sts	0x00F2, r24
     5e0:	80 91 ef 00 	lds	r24, 0x00EF
     5e4:	8f 7e       	andi	r24, 0xEF	; 239
     5e6:	80 93 ef 00 	sts	0x00EF, r24
     5ea:	19 82       	std	Y+1, r1	; 0x01
     5ec:	8b 81       	ldd	r24, Y+3	; 0x03
     5ee:	82 95       	swap	r24
     5f0:	86 95       	lsr	r24
     5f2:	87 70       	andi	r24, 0x07	; 7
     5f4:	9c 81       	ldd	r25, Y+4	; 0x04
     5f6:	f8 e0       	ldi	r31, 0x08	; 8
     5f8:	9f 9f       	mul	r25, r31
     5fa:	80 0d       	add	r24, r0
     5fc:	11 24       	eor	r1, r1
     5fe:	80 93 f7 00 	sts	0x00F7, r24
     602:	8a 81       	ldd	r24, Y+2	; 0x02
     604:	82 95       	swap	r24
     606:	86 95       	lsr	r24
     608:	87 70       	andi	r24, 0x07	; 7
     60a:	9b 81       	ldd	r25, Y+3	; 0x03
     60c:	28 e0       	ldi	r18, 0x08	; 8
     60e:	92 9f       	mul	r25, r18
     610:	80 0d       	add	r24, r0
     612:	11 24       	eor	r1, r1
     614:	80 93 f6 00 	sts	0x00F6, r24
     618:	89 81       	ldd	r24, Y+1	; 0x01
     61a:	82 95       	swap	r24
     61c:	86 95       	lsr	r24
     61e:	87 70       	andi	r24, 0x07	; 7
     620:	9a 81       	ldd	r25, Y+2	; 0x02
     622:	e8 e0       	ldi	r30, 0x08	; 8
     624:	9e 9f       	mul	r25, r30
     626:	80 0d       	add	r24, r0
     628:	11 24       	eor	r1, r1
     62a:	80 93 f5 00 	sts	0x00F5, r24
     62e:	89 81       	ldd	r24, Y+1	; 0x01
     630:	88 0f       	add	r24, r24
     632:	88 0f       	add	r24, r24
     634:	88 0f       	add	r24, r24
     636:	80 93 f4 00 	sts	0x00F4, r24
     63a:	80 91 ef 00 	lds	r24, 0x00EF
     63e:	f8 01       	movw	r30, r16
     640:	96 81       	ldd	r25, Z+6	; 0x06
     642:	89 2b       	or	r24, r25
     644:	80 93 ef 00 	sts	0x00EF, r24
     648:	12 86       	std	Z+10, r1	; 0x0a
     64a:	80 91 f4 00 	lds	r24, 0x00F4
     64e:	84 60       	ori	r24, 0x04	; 4
     650:	80 93 f4 00 	sts	0x00F4, r24
     654:	80 91 f0 00 	lds	r24, 0x00F0
     658:	8b 7f       	andi	r24, 0xFB	; 251
     65a:	80 93 f0 00 	sts	0x00F0, r24
     65e:	80 91 ef 00 	lds	r24, 0x00EF
     662:	8f 7e       	andi	r24, 0xEF	; 239
     664:	42 c2       	rjmp	.+1156   	; 0xaea <__stack+0x1eb>
     666:	8f ef       	ldi	r24, 0xFF	; 255
     668:	89 83       	std	Y+1, r24	; 0x01
     66a:	8a 81       	ldd	r24, Y+2	; 0x02
     66c:	82 95       	swap	r24
     66e:	88 0f       	add	r24, r24
     670:	80 7e       	andi	r24, 0xE0	; 224
     672:	81 5e       	subi	r24, 0xE1	; 225
     674:	80 93 f7 00 	sts	0x00F7, r24
     678:	89 81       	ldd	r24, Y+1	; 0x01
     67a:	82 95       	swap	r24
     67c:	88 0f       	add	r24, r24
     67e:	80 7e       	andi	r24, 0xE0	; 224
     680:	80 93 f6 00 	sts	0x00F6, r24
     684:	f8 01       	movw	r30, r16
     686:	82 81       	ldd	r24, Z+2	; 0x02
     688:	86 95       	lsr	r24
     68a:	86 95       	lsr	r24
     68c:	86 95       	lsr	r24
     68e:	93 81       	ldd	r25, Z+3	; 0x03
     690:	f0 e2       	ldi	r31, 0x20	; 32
     692:	9f 9f       	mul	r25, r31
     694:	80 0d       	add	r24, r0
     696:	11 24       	eor	r1, r1
     698:	80 93 f3 00 	sts	0x00F3, r24
     69c:	f8 01       	movw	r30, r16
     69e:	82 81       	ldd	r24, Z+2	; 0x02
     6a0:	82 95       	swap	r24
     6a2:	88 0f       	add	r24, r24
     6a4:	80 7e       	andi	r24, 0xE0	; 224
     6a6:	80 93 f2 00 	sts	0x00F2, r24
     6aa:	80 91 ef 00 	lds	r24, 0x00EF
     6ae:	8f 7e       	andi	r24, 0xEF	; 239
     6b0:	80 93 ef 00 	sts	0x00EF, r24
     6b4:	19 82       	std	Y+1, r1	; 0x01
     6b6:	8b 81       	ldd	r24, Y+3	; 0x03
     6b8:	82 95       	swap	r24
     6ba:	86 95       	lsr	r24
     6bc:	87 70       	andi	r24, 0x07	; 7
     6be:	9c 81       	ldd	r25, Y+4	; 0x04
     6c0:	f8 e0       	ldi	r31, 0x08	; 8
     6c2:	9f 9f       	mul	r25, r31
     6c4:	80 0d       	add	r24, r0
     6c6:	11 24       	eor	r1, r1
     6c8:	80 93 f7 00 	sts	0x00F7, r24
     6cc:	8a 81       	ldd	r24, Y+2	; 0x02
     6ce:	82 95       	swap	r24
     6d0:	86 95       	lsr	r24
     6d2:	87 70       	andi	r24, 0x07	; 7
     6d4:	9b 81       	ldd	r25, Y+3	; 0x03
     6d6:	28 e0       	ldi	r18, 0x08	; 8
     6d8:	92 9f       	mul	r25, r18
     6da:	80 0d       	add	r24, r0
     6dc:	11 24       	eor	r1, r1
     6de:	80 93 f6 00 	sts	0x00F6, r24
     6e2:	89 81       	ldd	r24, Y+1	; 0x01
     6e4:	82 95       	swap	r24
     6e6:	86 95       	lsr	r24
     6e8:	87 70       	andi	r24, 0x07	; 7
     6ea:	9a 81       	ldd	r25, Y+2	; 0x02
     6ec:	e8 e0       	ldi	r30, 0x08	; 8
     6ee:	9e 9f       	mul	r25, r30
     6f0:	80 0d       	add	r24, r0
     6f2:	11 24       	eor	r1, r1
     6f4:	80 93 f5 00 	sts	0x00F5, r24
     6f8:	89 81       	ldd	r24, Y+1	; 0x01
     6fa:	88 0f       	add	r24, r24
     6fc:	88 0f       	add	r24, r24
     6fe:	88 0f       	add	r24, r24
     700:	80 93 f4 00 	sts	0x00F4, r24
     704:	80 91 ef 00 	lds	r24, 0x00EF
     708:	f8 01       	movw	r30, r16
     70a:	96 81       	ldd	r25, Z+6	; 0x06
     70c:	89 2b       	or	r24, r25
     70e:	80 93 ef 00 	sts	0x00EF, r24
     712:	81 e0       	ldi	r24, 0x01	; 1
     714:	82 87       	std	Z+10, r24	; 0x0a
     716:	80 91 f4 00 	lds	r24, 0x00F4
     71a:	84 60       	ori	r24, 0x04	; 4
     71c:	80 93 f4 00 	sts	0x00F4, r24
     720:	80 91 f0 00 	lds	r24, 0x00F0
     724:	84 60       	ori	r24, 0x04	; 4
     726:	80 93 f0 00 	sts	0x00F0, r24
     72a:	80 91 ef 00 	lds	r24, 0x00EF
     72e:	8f 7d       	andi	r24, 0xDF	; 223
     730:	dc c1       	rjmp	.+952    	; 0xaea <__stack+0x1eb>
     732:	f8 01       	movw	r30, r16
     734:	83 85       	ldd	r24, Z+11	; 0x0b
     736:	88 23       	and	r24, r24
     738:	71 f1       	breq	.+92     	; 0x796 <can_cmd+0x53e>
     73a:	84 81       	ldd	r24, Z+4	; 0x04
     73c:	82 95       	swap	r24
     73e:	86 95       	lsr	r24
     740:	87 70       	andi	r24, 0x07	; 7
     742:	95 81       	ldd	r25, Z+5	; 0x05
     744:	f8 e0       	ldi	r31, 0x08	; 8
     746:	9f 9f       	mul	r25, r31
     748:	80 0d       	add	r24, r0
     74a:	11 24       	eor	r1, r1
     74c:	80 93 f3 00 	sts	0x00F3, r24
     750:	f8 01       	movw	r30, r16
     752:	83 81       	ldd	r24, Z+3	; 0x03
     754:	82 95       	swap	r24
     756:	86 95       	lsr	r24
     758:	87 70       	andi	r24, 0x07	; 7
     75a:	94 81       	ldd	r25, Z+4	; 0x04
     75c:	f8 e0       	ldi	r31, 0x08	; 8
     75e:	9f 9f       	mul	r25, r31
     760:	80 0d       	add	r24, r0
     762:	11 24       	eor	r1, r1
     764:	80 93 f2 00 	sts	0x00F2, r24
     768:	f8 01       	movw	r30, r16
     76a:	82 81       	ldd	r24, Z+2	; 0x02
     76c:	82 95       	swap	r24
     76e:	86 95       	lsr	r24
     770:	87 70       	andi	r24, 0x07	; 7
     772:	93 81       	ldd	r25, Z+3	; 0x03
     774:	f8 e0       	ldi	r31, 0x08	; 8
     776:	9f 9f       	mul	r25, r31
     778:	80 0d       	add	r24, r0
     77a:	11 24       	eor	r1, r1
     77c:	80 93 f1 00 	sts	0x00F1, r24
     780:	f8 01       	movw	r30, r16
     782:	82 81       	ldd	r24, Z+2	; 0x02
     784:	88 0f       	add	r24, r24
     786:	88 0f       	add	r24, r24
     788:	88 0f       	add	r24, r24
     78a:	80 93 f0 00 	sts	0x00F0, r24
     78e:	80 91 ef 00 	lds	r24, 0x00EF
     792:	80 61       	ori	r24, 0x10	; 16
     794:	16 c0       	rjmp	.+44     	; 0x7c2 <can_cmd+0x56a>
     796:	f8 01       	movw	r30, r16
     798:	82 81       	ldd	r24, Z+2	; 0x02
     79a:	86 95       	lsr	r24
     79c:	86 95       	lsr	r24
     79e:	86 95       	lsr	r24
     7a0:	93 81       	ldd	r25, Z+3	; 0x03
     7a2:	f0 e2       	ldi	r31, 0x20	; 32
     7a4:	9f 9f       	mul	r25, r31
     7a6:	80 0d       	add	r24, r0
     7a8:	11 24       	eor	r1, r1
     7aa:	80 93 f3 00 	sts	0x00F3, r24
     7ae:	f8 01       	movw	r30, r16
     7b0:	82 81       	ldd	r24, Z+2	; 0x02
     7b2:	82 95       	swap	r24
     7b4:	88 0f       	add	r24, r24
     7b6:	80 7e       	andi	r24, 0xE0	; 224
     7b8:	80 93 f2 00 	sts	0x00F2, r24
     7bc:	80 91 ef 00 	lds	r24, 0x00EF
     7c0:	8f 7e       	andi	r24, 0xEF	; 239
     7c2:	80 93 ef 00 	sts	0x00EF, r24
     7c6:	8f ef       	ldi	r24, 0xFF	; 255
     7c8:	89 83       	std	Y+1, r24	; 0x01
     7ca:	8b 81       	ldd	r24, Y+3	; 0x03
     7cc:	82 95       	swap	r24
     7ce:	86 95       	lsr	r24
     7d0:	87 70       	andi	r24, 0x07	; 7
     7d2:	9c 81       	ldd	r25, Y+4	; 0x04
     7d4:	f8 e0       	ldi	r31, 0x08	; 8
     7d6:	9f 9f       	mul	r25, r31
     7d8:	80 0d       	add	r24, r0
     7da:	11 24       	eor	r1, r1
     7dc:	80 93 f7 00 	sts	0x00F7, r24
     7e0:	8a 81       	ldd	r24, Y+2	; 0x02
     7e2:	82 95       	swap	r24
     7e4:	86 95       	lsr	r24
     7e6:	87 70       	andi	r24, 0x07	; 7
     7e8:	9b 81       	ldd	r25, Y+3	; 0x03
     7ea:	28 e0       	ldi	r18, 0x08	; 8
     7ec:	92 9f       	mul	r25, r18
     7ee:	80 0d       	add	r24, r0
     7f0:	11 24       	eor	r1, r1
     7f2:	80 93 f6 00 	sts	0x00F6, r24
     7f6:	89 81       	ldd	r24, Y+1	; 0x01
     7f8:	82 95       	swap	r24
     7fa:	86 95       	lsr	r24
     7fc:	87 70       	andi	r24, 0x07	; 7
     7fe:	9a 81       	ldd	r25, Y+2	; 0x02
     800:	e8 e0       	ldi	r30, 0x08	; 8
     802:	9e 9f       	mul	r25, r30
     804:	80 0d       	add	r24, r0
     806:	11 24       	eor	r1, r1
     808:	80 93 f5 00 	sts	0x00F5, r24
     80c:	89 81       	ldd	r24, Y+1	; 0x01
     80e:	88 0f       	add	r24, r24
     810:	88 0f       	add	r24, r24
     812:	88 0f       	add	r24, r24
     814:	80 93 f4 00 	sts	0x00F4, r24
     818:	80 91 ef 00 	lds	r24, 0x00EF
     81c:	f8 01       	movw	r30, r16
     81e:	96 81       	ldd	r25, Z+6	; 0x06
     820:	89 2b       	or	r24, r25
     822:	80 93 ef 00 	sts	0x00EF, r24
     826:	80 91 f4 00 	lds	r24, 0x00F4
     82a:	8b 7f       	andi	r24, 0xFB	; 251
     82c:	80 93 f4 00 	sts	0x00F4, r24
     830:	fc c1       	rjmp	.+1016   	; 0xc2a <__stack+0x32b>
     832:	f8 01       	movw	r30, r16
     834:	83 85       	ldd	r24, Z+11	; 0x0b
     836:	88 23       	and	r24, r24
     838:	71 f1       	breq	.+92     	; 0x896 <can_cmd+0x63e>
     83a:	84 81       	ldd	r24, Z+4	; 0x04
     83c:	82 95       	swap	r24
     83e:	86 95       	lsr	r24
     840:	87 70       	andi	r24, 0x07	; 7
     842:	95 81       	ldd	r25, Z+5	; 0x05
     844:	f8 e0       	ldi	r31, 0x08	; 8
     846:	9f 9f       	mul	r25, r31
     848:	80 0d       	add	r24, r0
     84a:	11 24       	eor	r1, r1
     84c:	80 93 f3 00 	sts	0x00F3, r24
     850:	f8 01       	movw	r30, r16
     852:	83 81       	ldd	r24, Z+3	; 0x03
     854:	82 95       	swap	r24
     856:	86 95       	lsr	r24
     858:	87 70       	andi	r24, 0x07	; 7
     85a:	94 81       	ldd	r25, Z+4	; 0x04
     85c:	f8 e0       	ldi	r31, 0x08	; 8
     85e:	9f 9f       	mul	r25, r31
     860:	80 0d       	add	r24, r0
     862:	11 24       	eor	r1, r1
     864:	80 93 f2 00 	sts	0x00F2, r24
     868:	f8 01       	movw	r30, r16
     86a:	82 81       	ldd	r24, Z+2	; 0x02
     86c:	82 95       	swap	r24
     86e:	86 95       	lsr	r24
     870:	87 70       	andi	r24, 0x07	; 7
     872:	93 81       	ldd	r25, Z+3	; 0x03
     874:	f8 e0       	ldi	r31, 0x08	; 8
     876:	9f 9f       	mul	r25, r31
     878:	80 0d       	add	r24, r0
     87a:	11 24       	eor	r1, r1
     87c:	80 93 f1 00 	sts	0x00F1, r24
     880:	f8 01       	movw	r30, r16
     882:	82 81       	ldd	r24, Z+2	; 0x02
     884:	88 0f       	add	r24, r24
     886:	88 0f       	add	r24, r24
     888:	88 0f       	add	r24, r24
     88a:	80 93 f0 00 	sts	0x00F0, r24
     88e:	80 91 ef 00 	lds	r24, 0x00EF
     892:	80 61       	ori	r24, 0x10	; 16
     894:	16 c0       	rjmp	.+44     	; 0x8c2 <can_cmd+0x66a>
     896:	f8 01       	movw	r30, r16
     898:	82 81       	ldd	r24, Z+2	; 0x02
     89a:	86 95       	lsr	r24
     89c:	86 95       	lsr	r24
     89e:	86 95       	lsr	r24
     8a0:	93 81       	ldd	r25, Z+3	; 0x03
     8a2:	f0 e2       	ldi	r31, 0x20	; 32
     8a4:	9f 9f       	mul	r25, r31
     8a6:	80 0d       	add	r24, r0
     8a8:	11 24       	eor	r1, r1
     8aa:	80 93 f3 00 	sts	0x00F3, r24
     8ae:	f8 01       	movw	r30, r16
     8b0:	82 81       	ldd	r24, Z+2	; 0x02
     8b2:	82 95       	swap	r24
     8b4:	88 0f       	add	r24, r24
     8b6:	80 7e       	andi	r24, 0xE0	; 224
     8b8:	80 93 f2 00 	sts	0x00F2, r24
     8bc:	80 91 ef 00 	lds	r24, 0x00EF
     8c0:	8f 7e       	andi	r24, 0xEF	; 239
     8c2:	80 93 ef 00 	sts	0x00EF, r24
     8c6:	8f ef       	ldi	r24, 0xFF	; 255
     8c8:	89 83       	std	Y+1, r24	; 0x01
     8ca:	8b 81       	ldd	r24, Y+3	; 0x03
     8cc:	82 95       	swap	r24
     8ce:	86 95       	lsr	r24
     8d0:	87 70       	andi	r24, 0x07	; 7
     8d2:	9c 81       	ldd	r25, Y+4	; 0x04
     8d4:	f8 e0       	ldi	r31, 0x08	; 8
     8d6:	9f 9f       	mul	r25, r31
     8d8:	80 0d       	add	r24, r0
     8da:	11 24       	eor	r1, r1
     8dc:	80 93 f7 00 	sts	0x00F7, r24
     8e0:	8a 81       	ldd	r24, Y+2	; 0x02
     8e2:	82 95       	swap	r24
     8e4:	86 95       	lsr	r24
     8e6:	87 70       	andi	r24, 0x07	; 7
     8e8:	9b 81       	ldd	r25, Y+3	; 0x03
     8ea:	28 e0       	ldi	r18, 0x08	; 8
     8ec:	92 9f       	mul	r25, r18
     8ee:	80 0d       	add	r24, r0
     8f0:	11 24       	eor	r1, r1
     8f2:	80 93 f6 00 	sts	0x00F6, r24
     8f6:	89 81       	ldd	r24, Y+1	; 0x01
     8f8:	82 95       	swap	r24
     8fa:	86 95       	lsr	r24
     8fc:	87 70       	andi	r24, 0x07	; 7
     8fe:	9a 81       	ldd	r25, Y+2	; 0x02
     900:	e8 e0       	ldi	r30, 0x08	; 8
     902:	9e 9f       	mul	r25, r30
     904:	80 0d       	add	r24, r0
     906:	11 24       	eor	r1, r1
     908:	80 93 f5 00 	sts	0x00F5, r24
     90c:	89 81       	ldd	r24, Y+1	; 0x01
     90e:	88 0f       	add	r24, r24
     910:	88 0f       	add	r24, r24
     912:	88 0f       	add	r24, r24
     914:	80 93 f4 00 	sts	0x00F4, r24
     918:	80 91 ef 00 	lds	r24, 0x00EF
     91c:	f8 01       	movw	r30, r16
     91e:	96 81       	ldd	r25, Z+6	; 0x06
     920:	89 2b       	or	r24, r25
     922:	80 93 ef 00 	sts	0x00EF, r24
     926:	12 86       	std	Z+10, r1	; 0x0a
     928:	80 91 f4 00 	lds	r24, 0x00F4
     92c:	84 60       	ori	r24, 0x04	; 4
     92e:	80 93 f4 00 	sts	0x00F4, r24
     932:	80 91 f0 00 	lds	r24, 0x00F0
     936:	8b 7f       	andi	r24, 0xFB	; 251
     938:	80 93 f0 00 	sts	0x00F0, r24
     93c:	76 c1       	rjmp	.+748    	; 0xc2a <__stack+0x32b>
     93e:	f8 01       	movw	r30, r16
     940:	83 85       	ldd	r24, Z+11	; 0x0b
     942:	88 23       	and	r24, r24
     944:	71 f1       	breq	.+92     	; 0x9a2 <__stack+0xa3>
     946:	84 81       	ldd	r24, Z+4	; 0x04
     948:	82 95       	swap	r24
     94a:	86 95       	lsr	r24
     94c:	87 70       	andi	r24, 0x07	; 7
     94e:	95 81       	ldd	r25, Z+5	; 0x05
     950:	f8 e0       	ldi	r31, 0x08	; 8
     952:	9f 9f       	mul	r25, r31
     954:	80 0d       	add	r24, r0
     956:	11 24       	eor	r1, r1
     958:	80 93 f3 00 	sts	0x00F3, r24
     95c:	f8 01       	movw	r30, r16
     95e:	83 81       	ldd	r24, Z+3	; 0x03
     960:	82 95       	swap	r24
     962:	86 95       	lsr	r24
     964:	87 70       	andi	r24, 0x07	; 7
     966:	94 81       	ldd	r25, Z+4	; 0x04
     968:	f8 e0       	ldi	r31, 0x08	; 8
     96a:	9f 9f       	mul	r25, r31
     96c:	80 0d       	add	r24, r0
     96e:	11 24       	eor	r1, r1
     970:	80 93 f2 00 	sts	0x00F2, r24
     974:	f8 01       	movw	r30, r16
     976:	82 81       	ldd	r24, Z+2	; 0x02
     978:	82 95       	swap	r24
     97a:	86 95       	lsr	r24
     97c:	87 70       	andi	r24, 0x07	; 7
     97e:	93 81       	ldd	r25, Z+3	; 0x03
     980:	f8 e0       	ldi	r31, 0x08	; 8
     982:	9f 9f       	mul	r25, r31
     984:	80 0d       	add	r24, r0
     986:	11 24       	eor	r1, r1
     988:	80 93 f1 00 	sts	0x00F1, r24
     98c:	f8 01       	movw	r30, r16
     98e:	82 81       	ldd	r24, Z+2	; 0x02
     990:	88 0f       	add	r24, r24
     992:	88 0f       	add	r24, r24
     994:	88 0f       	add	r24, r24
     996:	80 93 f0 00 	sts	0x00F0, r24
     99a:	80 91 ef 00 	lds	r24, 0x00EF
     99e:	80 61       	ori	r24, 0x10	; 16
     9a0:	16 c0       	rjmp	.+44     	; 0x9ce <__stack+0xcf>
     9a2:	f8 01       	movw	r30, r16
     9a4:	82 81       	ldd	r24, Z+2	; 0x02
     9a6:	86 95       	lsr	r24
     9a8:	86 95       	lsr	r24
     9aa:	86 95       	lsr	r24
     9ac:	93 81       	ldd	r25, Z+3	; 0x03
     9ae:	f0 e2       	ldi	r31, 0x20	; 32
     9b0:	9f 9f       	mul	r25, r31
     9b2:	80 0d       	add	r24, r0
     9b4:	11 24       	eor	r1, r1
     9b6:	80 93 f3 00 	sts	0x00F3, r24
     9ba:	f8 01       	movw	r30, r16
     9bc:	82 81       	ldd	r24, Z+2	; 0x02
     9be:	82 95       	swap	r24
     9c0:	88 0f       	add	r24, r24
     9c2:	80 7e       	andi	r24, 0xE0	; 224
     9c4:	80 93 f2 00 	sts	0x00F2, r24
     9c8:	80 91 ef 00 	lds	r24, 0x00EF
     9cc:	8f 7e       	andi	r24, 0xEF	; 239
     9ce:	80 93 ef 00 	sts	0x00EF, r24
     9d2:	8f ef       	ldi	r24, 0xFF	; 255
     9d4:	89 83       	std	Y+1, r24	; 0x01
     9d6:	8b 81       	ldd	r24, Y+3	; 0x03
     9d8:	82 95       	swap	r24
     9da:	86 95       	lsr	r24
     9dc:	87 70       	andi	r24, 0x07	; 7
     9de:	9c 81       	ldd	r25, Y+4	; 0x04
     9e0:	f8 e0       	ldi	r31, 0x08	; 8
     9e2:	9f 9f       	mul	r25, r31
     9e4:	80 0d       	add	r24, r0
     9e6:	11 24       	eor	r1, r1
     9e8:	80 93 f7 00 	sts	0x00F7, r24
     9ec:	8a 81       	ldd	r24, Y+2	; 0x02
     9ee:	82 95       	swap	r24
     9f0:	86 95       	lsr	r24
     9f2:	87 70       	andi	r24, 0x07	; 7
     9f4:	9b 81       	ldd	r25, Y+3	; 0x03
     9f6:	28 e0       	ldi	r18, 0x08	; 8
     9f8:	92 9f       	mul	r25, r18
     9fa:	80 0d       	add	r24, r0
     9fc:	11 24       	eor	r1, r1
     9fe:	80 93 f6 00 	sts	0x00F6, r24
     a02:	89 81       	ldd	r24, Y+1	; 0x01
     a04:	82 95       	swap	r24
     a06:	86 95       	lsr	r24
     a08:	87 70       	andi	r24, 0x07	; 7
     a0a:	9a 81       	ldd	r25, Y+2	; 0x02
     a0c:	e8 e0       	ldi	r30, 0x08	; 8
     a0e:	9e 9f       	mul	r25, r30
     a10:	80 0d       	add	r24, r0
     a12:	11 24       	eor	r1, r1
     a14:	80 93 f5 00 	sts	0x00F5, r24
     a18:	89 81       	ldd	r24, Y+1	; 0x01
     a1a:	88 0f       	add	r24, r24
     a1c:	88 0f       	add	r24, r24
     a1e:	88 0f       	add	r24, r24
     a20:	80 93 f4 00 	sts	0x00F4, r24
     a24:	80 91 ef 00 	lds	r24, 0x00EF
     a28:	f8 01       	movw	r30, r16
     a2a:	96 81       	ldd	r25, Z+6	; 0x06
     a2c:	89 2b       	or	r24, r25
     a2e:	80 93 ef 00 	sts	0x00EF, r24
     a32:	81 e0       	ldi	r24, 0x01	; 1
     a34:	82 87       	std	Z+10, r24	; 0x0a
     a36:	80 91 f4 00 	lds	r24, 0x00F4
     a3a:	84 60       	ori	r24, 0x04	; 4
     a3c:	80 93 f4 00 	sts	0x00F4, r24
     a40:	80 91 f0 00 	lds	r24, 0x00F0
     a44:	84 60       	ori	r24, 0x04	; 4
     a46:	80 93 f0 00 	sts	0x00F0, r24
     a4a:	80 91 ef 00 	lds	r24, 0x00EF
     a4e:	8f 7d       	andi	r24, 0xDF	; 223
     a50:	ea c0       	rjmp	.+468    	; 0xc26 <__stack+0x327>
     a52:	f8 01       	movw	r30, r16
     a54:	96 81       	ldd	r25, Z+6	; 0x06
     a56:	89 17       	cp	r24, r25
     a58:	50 f4       	brcc	.+20     	; 0xa6e <__stack+0x16f>
     a5a:	f8 01       	movw	r30, r16
     a5c:	a7 81       	ldd	r26, Z+7	; 0x07
     a5e:	b0 85       	ldd	r27, Z+8	; 0x08
     a60:	a8 0f       	add	r26, r24
     a62:	b1 1d       	adc	r27, r1
     a64:	9c 91       	ld	r25, X
     a66:	90 93 fa 00 	sts	0x00FA, r25
     a6a:	8f 5f       	subi	r24, 0xFF	; 255
     a6c:	f2 cf       	rjmp	.-28     	; 0xa52 <__stack+0x153>
     a6e:	19 82       	std	Y+1, r1	; 0x01
     a70:	8b 81       	ldd	r24, Y+3	; 0x03
     a72:	82 95       	swap	r24
     a74:	86 95       	lsr	r24
     a76:	87 70       	andi	r24, 0x07	; 7
     a78:	9c 81       	ldd	r25, Y+4	; 0x04
     a7a:	f8 e0       	ldi	r31, 0x08	; 8
     a7c:	9f 9f       	mul	r25, r31
     a7e:	80 0d       	add	r24, r0
     a80:	11 24       	eor	r1, r1
     a82:	80 93 f7 00 	sts	0x00F7, r24
     a86:	8a 81       	ldd	r24, Y+2	; 0x02
     a88:	82 95       	swap	r24
     a8a:	86 95       	lsr	r24
     a8c:	87 70       	andi	r24, 0x07	; 7
     a8e:	9b 81       	ldd	r25, Y+3	; 0x03
     a90:	28 e0       	ldi	r18, 0x08	; 8
     a92:	92 9f       	mul	r25, r18
     a94:	80 0d       	add	r24, r0
     a96:	11 24       	eor	r1, r1
     a98:	80 93 f6 00 	sts	0x00F6, r24
     a9c:	89 81       	ldd	r24, Y+1	; 0x01
     a9e:	82 95       	swap	r24
     aa0:	86 95       	lsr	r24
     aa2:	87 70       	andi	r24, 0x07	; 7
     aa4:	9a 81       	ldd	r25, Y+2	; 0x02
     aa6:	e8 e0       	ldi	r30, 0x08	; 8
     aa8:	9e 9f       	mul	r25, r30
     aaa:	80 0d       	add	r24, r0
     aac:	11 24       	eor	r1, r1
     aae:	80 93 f5 00 	sts	0x00F5, r24
     ab2:	89 81       	ldd	r24, Y+1	; 0x01
     ab4:	88 0f       	add	r24, r24
     ab6:	88 0f       	add	r24, r24
     ab8:	88 0f       	add	r24, r24
     aba:	80 93 f4 00 	sts	0x00F4, r24
     abe:	80 91 ef 00 	lds	r24, 0x00EF
     ac2:	f8 01       	movw	r30, r16
     ac4:	96 81       	ldd	r25, Z+6	; 0x06
     ac6:	89 2b       	or	r24, r25
     ac8:	80 93 ef 00 	sts	0x00EF, r24
     acc:	81 e0       	ldi	r24, 0x01	; 1
     ace:	82 87       	std	Z+10, r24	; 0x0a
     ad0:	80 91 f4 00 	lds	r24, 0x00F4
     ad4:	84 60       	ori	r24, 0x04	; 4
     ad6:	80 93 f4 00 	sts	0x00F4, r24
     ada:	80 91 f0 00 	lds	r24, 0x00F0
     ade:	84 60       	ori	r24, 0x04	; 4
     ae0:	80 93 f0 00 	sts	0x00F0, r24
     ae4:	80 91 ef 00 	lds	r24, 0x00EF
     ae8:	80 62       	ori	r24, 0x20	; 32
     aea:	80 93 ef 00 	sts	0x00EF, r24
     aee:	80 91 f4 00 	lds	r24, 0x00F4
     af2:	8e 7f       	andi	r24, 0xFE	; 254
     af4:	9d c0       	rjmp	.+314    	; 0xc30 <__stack+0x331>
     af6:	f8 01       	movw	r30, r16
     af8:	83 85       	ldd	r24, Z+11	; 0x0b
     afa:	88 23       	and	r24, r24
     afc:	71 f1       	breq	.+92     	; 0xb5a <__stack+0x25b>
     afe:	84 81       	ldd	r24, Z+4	; 0x04
     b00:	82 95       	swap	r24
     b02:	86 95       	lsr	r24
     b04:	87 70       	andi	r24, 0x07	; 7
     b06:	95 81       	ldd	r25, Z+5	; 0x05
     b08:	f8 e0       	ldi	r31, 0x08	; 8
     b0a:	9f 9f       	mul	r25, r31
     b0c:	80 0d       	add	r24, r0
     b0e:	11 24       	eor	r1, r1
     b10:	80 93 f3 00 	sts	0x00F3, r24
     b14:	f8 01       	movw	r30, r16
     b16:	83 81       	ldd	r24, Z+3	; 0x03
     b18:	82 95       	swap	r24
     b1a:	86 95       	lsr	r24
     b1c:	87 70       	andi	r24, 0x07	; 7
     b1e:	94 81       	ldd	r25, Z+4	; 0x04
     b20:	f8 e0       	ldi	r31, 0x08	; 8
     b22:	9f 9f       	mul	r25, r31
     b24:	80 0d       	add	r24, r0
     b26:	11 24       	eor	r1, r1
     b28:	80 93 f2 00 	sts	0x00F2, r24
     b2c:	f8 01       	movw	r30, r16
     b2e:	82 81       	ldd	r24, Z+2	; 0x02
     b30:	82 95       	swap	r24
     b32:	86 95       	lsr	r24
     b34:	87 70       	andi	r24, 0x07	; 7
     b36:	93 81       	ldd	r25, Z+3	; 0x03
     b38:	f8 e0       	ldi	r31, 0x08	; 8
     b3a:	9f 9f       	mul	r25, r31
     b3c:	80 0d       	add	r24, r0
     b3e:	11 24       	eor	r1, r1
     b40:	80 93 f1 00 	sts	0x00F1, r24
     b44:	f8 01       	movw	r30, r16
     b46:	82 81       	ldd	r24, Z+2	; 0x02
     b48:	88 0f       	add	r24, r24
     b4a:	88 0f       	add	r24, r24
     b4c:	88 0f       	add	r24, r24
     b4e:	80 93 f0 00 	sts	0x00F0, r24
     b52:	80 91 ef 00 	lds	r24, 0x00EF
     b56:	80 61       	ori	r24, 0x10	; 16
     b58:	16 c0       	rjmp	.+44     	; 0xb86 <__stack+0x287>
     b5a:	f8 01       	movw	r30, r16
     b5c:	82 81       	ldd	r24, Z+2	; 0x02
     b5e:	86 95       	lsr	r24
     b60:	86 95       	lsr	r24
     b62:	86 95       	lsr	r24
     b64:	93 81       	ldd	r25, Z+3	; 0x03
     b66:	f0 e2       	ldi	r31, 0x20	; 32
     b68:	9f 9f       	mul	r25, r31
     b6a:	80 0d       	add	r24, r0
     b6c:	11 24       	eor	r1, r1
     b6e:	80 93 f3 00 	sts	0x00F3, r24
     b72:	f8 01       	movw	r30, r16
     b74:	82 81       	ldd	r24, Z+2	; 0x02
     b76:	82 95       	swap	r24
     b78:	88 0f       	add	r24, r24
     b7a:	80 7e       	andi	r24, 0xE0	; 224
     b7c:	80 93 f2 00 	sts	0x00F2, r24
     b80:	80 91 ef 00 	lds	r24, 0x00EF
     b84:	8f 7e       	andi	r24, 0xEF	; 239
     b86:	80 93 ef 00 	sts	0x00EF, r24
     b8a:	80 e0       	ldi	r24, 0x00	; 0
     b8c:	f8 01       	movw	r30, r16
     b8e:	96 81       	ldd	r25, Z+6	; 0x06
     b90:	89 17       	cp	r24, r25
     b92:	50 f4       	brcc	.+20     	; 0xba8 <__stack+0x2a9>
     b94:	f8 01       	movw	r30, r16
     b96:	a7 81       	ldd	r26, Z+7	; 0x07
     b98:	b0 85       	ldd	r27, Z+8	; 0x08
     b9a:	a8 0f       	add	r26, r24
     b9c:	b1 1d       	adc	r27, r1
     b9e:	9c 91       	ld	r25, X
     ba0:	90 93 fa 00 	sts	0x00FA, r25
     ba4:	8f 5f       	subi	r24, 0xFF	; 255
     ba6:	f2 cf       	rjmp	.-28     	; 0xb8c <__stack+0x28d>
     ba8:	8f ef       	ldi	r24, 0xFF	; 255
     baa:	89 83       	std	Y+1, r24	; 0x01
     bac:	8b 81       	ldd	r24, Y+3	; 0x03
     bae:	82 95       	swap	r24
     bb0:	86 95       	lsr	r24
     bb2:	87 70       	andi	r24, 0x07	; 7
     bb4:	9c 81       	ldd	r25, Y+4	; 0x04
     bb6:	f8 e0       	ldi	r31, 0x08	; 8
     bb8:	9f 9f       	mul	r25, r31
     bba:	80 0d       	add	r24, r0
     bbc:	11 24       	eor	r1, r1
     bbe:	80 93 f7 00 	sts	0x00F7, r24
     bc2:	8a 81       	ldd	r24, Y+2	; 0x02
     bc4:	82 95       	swap	r24
     bc6:	86 95       	lsr	r24
     bc8:	87 70       	andi	r24, 0x07	; 7
     bca:	9b 81       	ldd	r25, Y+3	; 0x03
     bcc:	28 e0       	ldi	r18, 0x08	; 8
     bce:	92 9f       	mul	r25, r18
     bd0:	80 0d       	add	r24, r0
     bd2:	11 24       	eor	r1, r1
     bd4:	80 93 f6 00 	sts	0x00F6, r24
     bd8:	89 81       	ldd	r24, Y+1	; 0x01
     bda:	82 95       	swap	r24
     bdc:	86 95       	lsr	r24
     bde:	87 70       	andi	r24, 0x07	; 7
     be0:	9a 81       	ldd	r25, Y+2	; 0x02
     be2:	e8 e0       	ldi	r30, 0x08	; 8
     be4:	9e 9f       	mul	r25, r30
     be6:	80 0d       	add	r24, r0
     be8:	11 24       	eor	r1, r1
     bea:	80 93 f5 00 	sts	0x00F5, r24
     bee:	89 81       	ldd	r24, Y+1	; 0x01
     bf0:	88 0f       	add	r24, r24
     bf2:	88 0f       	add	r24, r24
     bf4:	88 0f       	add	r24, r24
     bf6:	80 93 f4 00 	sts	0x00F4, r24
     bfa:	80 91 ef 00 	lds	r24, 0x00EF
     bfe:	f8 01       	movw	r30, r16
     c00:	96 81       	ldd	r25, Z+6	; 0x06
     c02:	89 2b       	or	r24, r25
     c04:	80 93 ef 00 	sts	0x00EF, r24
     c08:	81 e0       	ldi	r24, 0x01	; 1
     c0a:	82 87       	std	Z+10, r24	; 0x0a
     c0c:	80 91 f4 00 	lds	r24, 0x00F4
     c10:	84 60       	ori	r24, 0x04	; 4
     c12:	80 93 f4 00 	sts	0x00F4, r24
     c16:	80 91 f0 00 	lds	r24, 0x00F0
     c1a:	84 60       	ori	r24, 0x04	; 4
     c1c:	80 93 f0 00 	sts	0x00F0, r24
     c20:	80 91 ef 00 	lds	r24, 0x00EF
     c24:	80 62       	ori	r24, 0x20	; 32
     c26:	80 93 ef 00 	sts	0x00EF, r24
     c2a:	80 91 f4 00 	lds	r24, 0x00F4
     c2e:	81 60       	ori	r24, 0x01	; 1
     c30:	80 93 f4 00 	sts	0x00F4, r24
     c34:	80 91 ef 00 	lds	r24, 0x00EF
     c38:	8f 73       	andi	r24, 0x3F	; 63
     c3a:	80 93 ef 00 	sts	0x00EF, r24
     c3e:	80 91 ef 00 	lds	r24, 0x00EF
     c42:	80 68       	ori	r24, 0x80	; 128
     c44:	21 cc       	rjmp	.-1982   	; 0x488 <can_cmd+0x230>
     c46:	f8 01       	movw	r30, r16
     c48:	11 86       	std	Z+9, r1	; 0x09
     c4a:	20 cc       	rjmp	.-1984   	; 0x48c <can_cmd+0x234>
     c4c:	8f e1       	ldi	r24, 0x1F	; 31
     c4e:	f8 01       	movw	r30, r16
     c50:	81 87       	std	Z+9, r24	; 0x09
     c52:	8f ef       	ldi	r24, 0xFF	; 255
     c54:	0f 90       	pop	r0
     c56:	df 91       	pop	r29
     c58:	cf 91       	pop	r28
     c5a:	1f 91       	pop	r17
     c5c:	0f 91       	pop	r16
     c5e:	08 95       	ret

00000c60 <can_get_status>:
     c60:	cf 93       	push	r28
     c62:	df 93       	push	r29
     c64:	ec 01       	movw	r28, r24
     c66:	89 85       	ldd	r24, Y+9	; 0x09
     c68:	88 23       	and	r24, r24
     c6a:	09 f4       	brne	.+2      	; 0xc6e <can_get_status+0xe>
     c6c:	dc c0       	rjmp	.+440    	; 0xe26 <can_get_status+0x1c6>
     c6e:	8f 31       	cpi	r24, 0x1F	; 31
     c70:	09 f4       	brne	.+2      	; 0xc74 <can_get_status+0x14>
     c72:	d9 c0       	rjmp	.+434    	; 0xe26 <can_get_status+0x1c6>
     c74:	8f 3f       	cpi	r24, 0xFF	; 255
     c76:	09 f4       	brne	.+2      	; 0xc7a <can_get_status+0x1a>
     c78:	d6 c0       	rjmp	.+428    	; 0xe26 <can_get_status+0x1c6>
     c7a:	62 95       	swap	r22
     c7c:	60 7f       	andi	r22, 0xF0	; 240
     c7e:	60 93 ed 00 	sts	0x00ED, r22
     c82:	0e 94 ee 00 	call	0x1dc	; 0x1dc <can_get_mob_status>
     c86:	80 32       	cpi	r24, 0x20	; 32
     c88:	61 f0       	breq	.+24     	; 0xca2 <can_get_status+0x42>
     c8a:	20 f4       	brcc	.+8      	; 0xc94 <can_get_status+0x34>
     c8c:	88 23       	and	r24, r24
     c8e:	09 f4       	brne	.+2      	; 0xc92 <can_get_status+0x32>
     c90:	cc c0       	rjmp	.+408    	; 0xe2a <can_get_status+0x1ca>
     c92:	c1 c0       	rjmp	.+386    	; 0xe16 <can_get_status+0x1b6>
     c94:	80 34       	cpi	r24, 0x40	; 64
     c96:	09 f4       	brne	.+2      	; 0xc9a <can_get_status+0x3a>
     c98:	b4 c0       	rjmp	.+360    	; 0xe02 <can_get_status+0x1a2>
     c9a:	80 3a       	cpi	r24, 0xA0	; 160
     c9c:	09 f4       	brne	.+2      	; 0xca0 <can_get_status+0x40>
     c9e:	5c c0       	rjmp	.+184    	; 0xd58 <can_get_status+0xf8>
     ca0:	ba c0       	rjmp	.+372    	; 0xe16 <can_get_status+0x1b6>
     ca2:	87 e0       	ldi	r24, 0x07	; 7
     ca4:	0e 94 19 07 	call	0xe32	; 0xe32 <LED_toggle>
     ca8:	84 e6       	ldi	r24, 0x64	; 100
     caa:	90 e0       	ldi	r25, 0x00	; 0
     cac:	0e 94 64 08 	call	0x10c8	; 0x10c8 <delay_ms>
     cb0:	87 e0       	ldi	r24, 0x07	; 7
     cb2:	0e 94 19 07 	call	0xe32	; 0xe32 <LED_toggle>
     cb6:	84 e6       	ldi	r24, 0x64	; 100
     cb8:	90 e0       	ldi	r25, 0x00	; 0
     cba:	0e 94 64 08 	call	0x10c8	; 0x10c8 <delay_ms>
     cbe:	80 91 f0 00 	lds	r24, 0x00F0
     cc2:	82 fb       	bst	r24, 2
     cc4:	88 27       	eor	r24, r24
     cc6:	80 f9       	bld	r24, 0
     cc8:	8a 87       	std	Y+10, r24	; 0x0a
     cca:	80 91 ef 00 	lds	r24, 0x00EF
     cce:	84 ff       	sbrs	r24, 4
     cd0:	2d c0       	rjmp	.+90     	; 0xd2c <can_get_status+0xcc>
     cd2:	81 e0       	ldi	r24, 0x01	; 1
     cd4:	8b 87       	std	Y+11, r24	; 0x0b
     cd6:	80 91 f3 00 	lds	r24, 0x00F3
     cda:	86 95       	lsr	r24
     cdc:	86 95       	lsr	r24
     cde:	86 95       	lsr	r24
     ce0:	8d 83       	std	Y+5, r24	; 0x05
     ce2:	80 91 f2 00 	lds	r24, 0x00F2
     ce6:	90 91 f3 00 	lds	r25, 0x00F3
     cea:	86 95       	lsr	r24
     cec:	86 95       	lsr	r24
     cee:	86 95       	lsr	r24
     cf0:	20 e2       	ldi	r18, 0x20	; 32
     cf2:	92 9f       	mul	r25, r18
     cf4:	80 0d       	add	r24, r0
     cf6:	11 24       	eor	r1, r1
     cf8:	8c 83       	std	Y+4, r24	; 0x04
     cfa:	80 91 f1 00 	lds	r24, 0x00F1
     cfe:	90 91 f2 00 	lds	r25, 0x00F2
     d02:	86 95       	lsr	r24
     d04:	86 95       	lsr	r24
     d06:	86 95       	lsr	r24
     d08:	20 e2       	ldi	r18, 0x20	; 32
     d0a:	92 9f       	mul	r25, r18
     d0c:	80 0d       	add	r24, r0
     d0e:	11 24       	eor	r1, r1
     d10:	8b 83       	std	Y+3, r24	; 0x03
     d12:	80 91 f0 00 	lds	r24, 0x00F0
     d16:	90 91 f1 00 	lds	r25, 0x00F1
     d1a:	86 95       	lsr	r24
     d1c:	86 95       	lsr	r24
     d1e:	86 95       	lsr	r24
     d20:	20 e2       	ldi	r18, 0x20	; 32
     d22:	92 9f       	mul	r25, r18
     d24:	80 0d       	add	r24, r0
     d26:	11 24       	eor	r1, r1
     d28:	8a 83       	std	Y+2, r24	; 0x02
     d2a:	07 c0       	rjmp	.+14     	; 0xd3a <can_get_status+0xda>
     d2c:	1b 86       	std	Y+11, r1	; 0x0b
     d2e:	80 91 f3 00 	lds	r24, 0x00F3
     d32:	80 91 f2 00 	lds	r24, 0x00F2
     d36:	80 91 f3 00 	lds	r24, 0x00F3
     d3a:	80 e2       	ldi	r24, 0x20	; 32
     d3c:	89 87       	std	Y+9, r24	; 0x09
     d3e:	8f 81       	ldd	r24, Y+7	; 0x07
     d40:	98 85       	ldd	r25, Y+8	; 0x08
     d42:	0e 94 06 01 	call	0x20c	; 0x20c <can_get_data>
     d46:	80 91 ef 00 	lds	r24, 0x00EF
     d4a:	8f 73       	andi	r24, 0x3F	; 63
     d4c:	80 93 ef 00 	sts	0x00EF, r24
     d50:	10 92 ee 00 	sts	0x00EE, r1
     d54:	80 e2       	ldi	r24, 0x20	; 32
     d56:	6a c0       	rjmp	.+212    	; 0xe2c <can_get_status+0x1cc>
     d58:	80 91 f0 00 	lds	r24, 0x00F0
     d5c:	82 fb       	bst	r24, 2
     d5e:	88 27       	eor	r24, r24
     d60:	80 f9       	bld	r24, 0
     d62:	8a 87       	std	Y+10, r24	; 0x0a
     d64:	80 91 ef 00 	lds	r24, 0x00EF
     d68:	84 ff       	sbrs	r24, 4
     d6a:	29 c0       	rjmp	.+82     	; 0xdbe <can_get_status+0x15e>
     d6c:	81 e0       	ldi	r24, 0x01	; 1
     d6e:	8b 87       	std	Y+11, r24	; 0x0b
     d70:	80 91 f3 00 	lds	r24, 0x00F3
     d74:	86 95       	lsr	r24
     d76:	86 95       	lsr	r24
     d78:	86 95       	lsr	r24
     d7a:	8d 83       	std	Y+5, r24	; 0x05
     d7c:	80 91 f2 00 	lds	r24, 0x00F2
     d80:	90 91 f3 00 	lds	r25, 0x00F3
     d84:	86 95       	lsr	r24
     d86:	86 95       	lsr	r24
     d88:	86 95       	lsr	r24
     d8a:	20 e2       	ldi	r18, 0x20	; 32
     d8c:	92 9f       	mul	r25, r18
     d8e:	80 0d       	add	r24, r0
     d90:	11 24       	eor	r1, r1
     d92:	8c 83       	std	Y+4, r24	; 0x04
     d94:	80 91 f1 00 	lds	r24, 0x00F1
     d98:	90 91 f2 00 	lds	r25, 0x00F2
     d9c:	86 95       	lsr	r24
     d9e:	86 95       	lsr	r24
     da0:	86 95       	lsr	r24
     da2:	20 e2       	ldi	r18, 0x20	; 32
     da4:	92 9f       	mul	r25, r18
     da6:	80 0d       	add	r24, r0
     da8:	11 24       	eor	r1, r1
     daa:	8b 83       	std	Y+3, r24	; 0x03
     dac:	80 91 f0 00 	lds	r24, 0x00F0
     db0:	90 91 f1 00 	lds	r25, 0x00F1
     db4:	86 95       	lsr	r24
     db6:	86 95       	lsr	r24
     db8:	86 95       	lsr	r24
     dba:	20 e2       	ldi	r18, 0x20	; 32
     dbc:	0f c0       	rjmp	.+30     	; 0xddc <can_get_status+0x17c>
     dbe:	1b 86       	std	Y+11, r1	; 0x0b
     dc0:	80 91 f3 00 	lds	r24, 0x00F3
     dc4:	82 95       	swap	r24
     dc6:	86 95       	lsr	r24
     dc8:	87 70       	andi	r24, 0x07	; 7
     dca:	8b 83       	std	Y+3, r24	; 0x03
     dcc:	80 91 f2 00 	lds	r24, 0x00F2
     dd0:	90 91 f3 00 	lds	r25, 0x00F3
     dd4:	82 95       	swap	r24
     dd6:	86 95       	lsr	r24
     dd8:	87 70       	andi	r24, 0x07	; 7
     dda:	28 e0       	ldi	r18, 0x08	; 8
     ddc:	92 9f       	mul	r25, r18
     dde:	80 0d       	add	r24, r0
     de0:	11 24       	eor	r1, r1
     de2:	8a 83       	std	Y+2, r24	; 0x02
     de4:	80 ea       	ldi	r24, 0xA0	; 160
     de6:	89 87       	std	Y+9, r24	; 0x09
     de8:	8f 81       	ldd	r24, Y+7	; 0x07
     dea:	98 85       	ldd	r25, Y+8	; 0x08
     dec:	0e 94 06 01 	call	0x20c	; 0x20c <can_get_data>
     df0:	80 91 ef 00 	lds	r24, 0x00EF
     df4:	8f 73       	andi	r24, 0x3F	; 63
     df6:	80 93 ef 00 	sts	0x00EF, r24
     dfa:	10 92 ee 00 	sts	0x00EE, r1
     dfe:	80 ea       	ldi	r24, 0xA0	; 160
     e00:	15 c0       	rjmp	.+42     	; 0xe2c <can_get_status+0x1cc>
     e02:	89 87       	std	Y+9, r24	; 0x09
     e04:	80 91 ef 00 	lds	r24, 0x00EF
     e08:	8f 73       	andi	r24, 0x3F	; 63
     e0a:	80 93 ef 00 	sts	0x00EF, r24
     e0e:	10 92 ee 00 	sts	0x00EE, r1
     e12:	80 e4       	ldi	r24, 0x40	; 64
     e14:	0b c0       	rjmp	.+22     	; 0xe2c <can_get_status+0x1cc>
     e16:	89 87       	std	Y+9, r24	; 0x09
     e18:	80 91 ef 00 	lds	r24, 0x00EF
     e1c:	8f 73       	andi	r24, 0x3F	; 63
     e1e:	80 93 ef 00 	sts	0x00EF, r24
     e22:	10 92 ee 00 	sts	0x00EE, r1
     e26:	82 e0       	ldi	r24, 0x02	; 2
     e28:	01 c0       	rjmp	.+2      	; 0xe2c <can_get_status+0x1cc>
     e2a:	81 e0       	ldi	r24, 0x01	; 1
     e2c:	df 91       	pop	r29
     e2e:	cf 91       	pop	r28
     e30:	08 95       	ret

00000e32 <LED_toggle>:
     e32:	87 30       	cpi	r24, 0x07	; 7
     e34:	29 f4       	brne	.+10     	; 0xe40 <LED_toggle+0xe>
     e36:	9b b1       	in	r25, 0x0b	; 11
     e38:	21 e0       	ldi	r18, 0x01	; 1
     e3a:	92 27       	eor	r25, r18
     e3c:	9b b9       	out	0x0b, r25	; 11
     e3e:	07 c0       	rjmp	.+14     	; 0xe4e <LED_toggle+0x1c>
     e40:	83 30       	cpi	r24, 0x03	; 3
     e42:	29 f4       	brne	.+10     	; 0xe4e <LED_toggle+0x1c>
     e44:	88 b1       	in	r24, 0x08	; 8
     e46:	91 e0       	ldi	r25, 0x01	; 1
     e48:	89 27       	eor	r24, r25
     e4a:	88 b9       	out	0x08, r24	; 8
     e4c:	08 95       	ret
     e4e:	95 b1       	in	r25, 0x05	; 5
     e50:	21 e0       	ldi	r18, 0x01	; 1
     e52:	30 e0       	ldi	r19, 0x00	; 0
     e54:	08 2e       	mov	r0, r24
     e56:	01 c0       	rjmp	.+2      	; 0xe5a <LED_toggle+0x28>
     e58:	22 0f       	add	r18, r18
     e5a:	0a 94       	dec	r0
     e5c:	ea f7       	brpl	.-6      	; 0xe58 <LED_toggle+0x26>
     e5e:	92 27       	eor	r25, r18
     e60:	95 b9       	out	0x05, r25	; 5
     e62:	08 95       	ret

00000e64 <main>:
     e64:	cf 93       	push	r28
     e66:	df 93       	push	r29
     e68:	00 d0       	rcall	.+0      	; 0xe6a <main+0x6>
     e6a:	1f 92       	push	r1
     e6c:	cd b7       	in	r28, 0x3d	; 61
     e6e:	de b7       	in	r29, 0x3e	; 62
     e70:	80 e8       	ldi	r24, 0x80	; 128
     e72:	80 93 61 00 	sts	0x0061, r24
     e76:	10 92 61 00 	sts	0x0061, r1
     e7a:	8e ef       	ldi	r24, 0xFE	; 254
     e7c:	84 b9       	out	0x04, r24	; 4
     e7e:	81 e0       	ldi	r24, 0x01	; 1
     e80:	87 b9       	out	0x07, r24	; 7
     e82:	18 b8       	out	0x08, r1	; 8
     e84:	99 e0       	ldi	r25, 0x09	; 9
     e86:	9a b9       	out	0x0a, r25	; 10
     e88:	8b b9       	out	0x0b, r24	; 11
     e8a:	1d b8       	out	0x0d, r1	; 13
     e8c:	1b b8       	out	0x0b, r1	; 11
     e8e:	0e 94 4a 08 	call	0x1094	; 0x1094 <timer_init>
     e92:	0e 94 5d 00 	call	0xba	; 0xba <adc_initialize>
     e96:	80 e0       	ldi	r24, 0x00	; 0
     e98:	0e 94 1d 01 	call	0x23a	; 0x23a <can_init>
     e9c:	0e 94 a1 00 	call	0x142	; 0x142 <can_init_mobs>
     ea0:	0e 94 0e 08 	call	0x101c	; 0x101c <spi_initialize_master>
     ea4:	0e 94 60 09 	call	0x12c0	; 0x12c0 <transceiver_initialize>
     ea8:	86 e3       	ldi	r24, 0x36	; 54
     eaa:	0e 94 c6 08 	call	0x118c	; 0x118c <cmd_str>
     eae:	78 94       	sei
     eb0:	83 e0       	ldi	r24, 0x03	; 3
     eb2:	0e 94 19 07 	call	0xe32	; 0xe32 <LED_toggle>
     eb6:	84 ef       	ldi	r24, 0xF4	; 244
     eb8:	91 e0       	ldi	r25, 0x01	; 1
     eba:	0e 94 64 08 	call	0x10c8	; 0x10c8 <delay_ms>
     ebe:	83 e0       	ldi	r24, 0x03	; 3
     ec0:	0e 94 19 07 	call	0xe32	; 0xe32 <LED_toggle>
     ec4:	8a ef       	ldi	r24, 0xFA	; 250
     ec6:	90 e0       	ldi	r25, 0x00	; 0
     ec8:	0e 94 64 08 	call	0x10c8	; 0x10c8 <delay_ms>
     ecc:	e6 e3       	ldi	r30, 0x36	; 54
     ece:	f1 e0       	ldi	r31, 0x01	; 1
     ed0:	11 92       	st	Z+, r1
     ed2:	81 e0       	ldi	r24, 0x01	; 1
     ed4:	ee 33       	cpi	r30, 0x3E	; 62
     ed6:	f8 07       	cpc	r31, r24
     ed8:	d9 f7       	brne	.-10     	; 0xed0 <main+0x6c>
     eda:	10 92 2c 01 	sts	0x012C, r1
     ede:	10 92 35 01 	sts	0x0135, r1
     ee2:	10 92 46 01 	sts	0x0146, r1
     ee6:	0b ea       	ldi	r16, 0xAB	; 171
     ee8:	80 ef       	ldi	r24, 0xF0	; 240
     eea:	f8 2e       	mov	r15, r24
     eec:	15 e5       	ldi	r17, 0x55	; 85
     eee:	0e 94 34 08 	call	0x1068	; 0x1068 <SS_set_high>
     ef2:	80 e5       	ldi	r24, 0x50	; 80
     ef4:	90 e0       	ldi	r25, 0x00	; 0
     ef6:	0e 94 52 08 	call	0x10a4	; 0x10a4 <delay_us>
     efa:	6f ef       	ldi	r22, 0xFF	; 255
     efc:	8a e0       	ldi	r24, 0x0A	; 10
     efe:	0e 94 7e 08 	call	0x10fc	; 0x10fc <reg_write>
     f02:	0e 94 38 08 	call	0x1070	; 0x1070 <SS_set_low>
     f06:	0e 94 34 08 	call	0x1068	; 0x1068 <SS_set_high>
     f0a:	80 e5       	ldi	r24, 0x50	; 80
     f0c:	90 e0       	ldi	r25, 0x00	; 0
     f0e:	0e 94 52 08 	call	0x10a4	; 0x10a4 <delay_us>
     f12:	8a e0       	ldi	r24, 0x0A	; 10
     f14:	0e 94 79 08 	call	0x10f2	; 0x10f2 <reg_read>
     f18:	8b 83       	std	Y+3, r24	; 0x03
     f1a:	0e 94 38 08 	call	0x1070	; 0x1070 <SS_set_low>
     f1e:	8b 81       	ldd	r24, Y+3	; 0x03
     f20:	88 23       	and	r24, r24
     f22:	71 f0       	breq	.+28     	; 0xf40 <main+0xdc>
     f24:	83 e0       	ldi	r24, 0x03	; 3
     f26:	0e 94 19 07 	call	0xe32	; 0xe32 <LED_toggle>
     f2a:	84 e6       	ldi	r24, 0x64	; 100
     f2c:	90 e0       	ldi	r25, 0x00	; 0
     f2e:	0e 94 64 08 	call	0x10c8	; 0x10c8 <delay_ms>
     f32:	83 e0       	ldi	r24, 0x03	; 3
     f34:	0e 94 19 07 	call	0xe32	; 0xe32 <LED_toggle>
     f38:	84 e6       	ldi	r24, 0x64	; 100
     f3a:	90 e0       	ldi	r25, 0x00	; 0
     f3c:	0e 94 64 08 	call	0x10c8	; 0x10c8 <delay_ms>
     f40:	0e 94 d4 08 	call	0x11a8	; 0x11a8 <monitor_LEDs>
     f44:	be 01       	movw	r22, r28
     f46:	6e 5f       	subi	r22, 0xFE	; 254
     f48:	7f 4f       	sbci	r23, 0xFF	; 255
     f4a:	ce 01       	movw	r24, r28
     f4c:	01 96       	adiw	r24, 0x01	; 1
     f4e:	0e 94 af 08 	call	0x115e	; 0x115e <get_status>
     f52:	8a 81       	ldd	r24, Y+2	; 0x02
     f54:	86 30       	cpi	r24, 0x06	; 6
     f56:	21 f5       	brne	.+72     	; 0xfa0 <main+0x13c>
     f58:	86 e3       	ldi	r24, 0x36	; 54
     f5a:	0e 94 c6 08 	call	0x118c	; 0x118c <cmd_str>
     f5e:	80 e8       	ldi	r24, 0x80	; 128
     f60:	0e 94 c8 08 	call	0x1190	; 0x1190 <dir_FIFO_read>
     f64:	8a 30       	cpi	r24, 0x0A	; 10
     f66:	71 f4       	brne	.+28     	; 0xf84 <main+0x120>
     f68:	83 e0       	ldi	r24, 0x03	; 3
     f6a:	0e 94 19 07 	call	0xe32	; 0xe32 <LED_toggle>
     f6e:	84 e6       	ldi	r24, 0x64	; 100
     f70:	90 e0       	ldi	r25, 0x00	; 0
     f72:	0e 94 64 08 	call	0x10c8	; 0x10c8 <delay_ms>
     f76:	83 e0       	ldi	r24, 0x03	; 3
     f78:	0e 94 19 07 	call	0xe32	; 0xe32 <LED_toggle>
     f7c:	84 e6       	ldi	r24, 0x64	; 100
     f7e:	90 e0       	ldi	r25, 0x00	; 0
     f80:	0e 94 64 08 	call	0x10c8	; 0x10c8 <delay_ms>
     f84:	8a e3       	ldi	r24, 0x3A	; 58
     f86:	0e 94 c6 08 	call	0x118c	; 0x118c <cmd_str>
     f8a:	60 e0       	ldi	r22, 0x00	; 0
     f8c:	82 ed       	ldi	r24, 0xD2	; 210
     f8e:	0e 94 99 08 	call	0x1132	; 0x1132 <reg_write2F>
     f92:	6f ef       	ldi	r22, 0xFF	; 255
     f94:	84 ed       	ldi	r24, 0xD4	; 212
     f96:	0e 94 99 08 	call	0x1132	; 0x1132 <reg_write2F>
     f9a:	84 e3       	ldi	r24, 0x34	; 52
     f9c:	0e 94 c6 08 	call	0x118c	; 0x118c <cmd_str>
     fa0:	80 91 2c 01 	lds	r24, 0x012C
     fa4:	81 30       	cpi	r24, 0x01	; 1
     fa6:	71 f4       	brne	.+28     	; 0xfc4 <main+0x160>
     fa8:	e0 e1       	ldi	r30, 0x10	; 16
     faa:	f1 e0       	ldi	r31, 0x01	; 1
     fac:	01 93       	st	Z+, r16
     fae:	81 e0       	ldi	r24, 0x01	; 1
     fb0:	e8 31       	cpi	r30, 0x18	; 24
     fb2:	f8 07       	cpc	r31, r24
     fb4:	d9 f7       	brne	.-10     	; 0xfac <main+0x148>
     fb6:	61 e1       	ldi	r22, 0x11	; 17
     fb8:	80 e1       	ldi	r24, 0x10	; 16
     fba:	91 e0       	ldi	r25, 0x01	; 1
     fbc:	0e 94 70 00 	call	0xe0	; 0xe0 <can_send_message>
     fc0:	10 92 2c 01 	sts	0x012C, r1
     fc4:	80 91 35 01 	lds	r24, 0x0135
     fc8:	81 30       	cpi	r24, 0x01	; 1
     fca:	71 f4       	brne	.+28     	; 0xfe8 <main+0x184>
     fcc:	e0 e1       	ldi	r30, 0x10	; 16
     fce:	f1 e0       	ldi	r31, 0x01	; 1
     fd0:	f1 92       	st	Z+, r15
     fd2:	81 e0       	ldi	r24, 0x01	; 1
     fd4:	e8 31       	cpi	r30, 0x18	; 24
     fd6:	f8 07       	cpc	r31, r24
     fd8:	d9 f7       	brne	.-10     	; 0xfd0 <main+0x16c>
     fda:	60 e1       	ldi	r22, 0x10	; 16
     fdc:	80 e1       	ldi	r24, 0x10	; 16
     fde:	91 e0       	ldi	r25, 0x01	; 1
     fe0:	0e 94 70 00 	call	0xe0	; 0xe0 <can_send_message>
     fe4:	10 92 35 01 	sts	0x0135, r1
     fe8:	80 91 46 01 	lds	r24, 0x0146
     fec:	81 30       	cpi	r24, 0x01	; 1
     fee:	09 f0       	breq	.+2      	; 0xff2 <main+0x18e>
     ff0:	7e cf       	rjmp	.-260    	; 0xeee <main+0x8a>
     ff2:	e0 e1       	ldi	r30, 0x10	; 16
     ff4:	f1 e0       	ldi	r31, 0x01	; 1
     ff6:	11 92       	st	Z+, r1
     ff8:	81 e0       	ldi	r24, 0x01	; 1
     ffa:	e8 31       	cpi	r30, 0x18	; 24
     ffc:	f8 07       	cpc	r31, r24
     ffe:	d9 f7       	brne	.-10     	; 0xff6 <main+0x192>
    1000:	80 e1       	ldi	r24, 0x10	; 16
    1002:	91 e0       	ldi	r25, 0x01	; 1
    1004:	0e 94 67 00 	call	0xce	; 0xce <adc_read>
    1008:	10 93 13 01 	sts	0x0113, r17
    100c:	6a e0       	ldi	r22, 0x0A	; 10
    100e:	80 e1       	ldi	r24, 0x10	; 16
    1010:	91 e0       	ldi	r25, 0x01	; 1
    1012:	0e 94 70 00 	call	0xe0	; 0xe0 <can_send_message>
    1016:	10 92 46 01 	sts	0x0146, r1
    101a:	69 cf       	rjmp	.-302    	; 0xeee <main+0x8a>

0000101c <spi_initialize_master>:
    101c:	85 b7       	in	r24, 0x35	; 53
    101e:	8f 77       	andi	r24, 0x7F	; 127
    1020:	85 bf       	out	0x35, r24	; 53
    1022:	8f e5       	ldi	r24, 0x5F	; 95
    1024:	8c bd       	out	0x2c, r24	; 44
    1026:	08 95       	ret

00001028 <spi_transfer>:
    1028:	8e bd       	out	0x2e, r24	; 46
    102a:	0d b4       	in	r0, 0x2d	; 45
    102c:	07 fe       	sbrs	r0, 7
    102e:	18 c0       	rjmp	.+48     	; 0x1060 <spi_transfer+0x38>
    1030:	27 e0       	ldi	r18, 0x07	; 7
    1032:	30 e0       	ldi	r19, 0x00	; 0
    1034:	90 e0       	ldi	r25, 0x00	; 0
    1036:	68 2f       	mov	r22, r24
    1038:	70 e0       	ldi	r23, 0x00	; 0
    103a:	ab 01       	movw	r20, r22
    103c:	02 2e       	mov	r0, r18
    103e:	01 c0       	rjmp	.+2      	; 0x1042 <spi_transfer+0x1a>
    1040:	44 0f       	add	r20, r20
    1042:	0a 94       	dec	r0
    1044:	ea f7       	brpl	.-6      	; 0x1040 <spi_transfer+0x18>
    1046:	44 1f       	adc	r20, r20
    1048:	44 27       	eor	r20, r20
    104a:	44 1f       	adc	r20, r20
    104c:	02 2e       	mov	r0, r18
    104e:	01 c0       	rjmp	.+2      	; 0x1052 <spi_transfer+0x2a>
    1050:	44 0f       	add	r20, r20
    1052:	0a 94       	dec	r0
    1054:	ea f7       	brpl	.-6      	; 0x1050 <spi_transfer+0x28>
    1056:	94 0f       	add	r25, r20
    1058:	21 50       	subi	r18, 0x01	; 1
    105a:	31 09       	sbc	r19, r1
    105c:	70 f7       	brcc	.-36     	; 0x103a <spi_transfer+0x12>
    105e:	02 c0       	rjmp	.+4      	; 0x1064 <spi_transfer+0x3c>
    1060:	80 e0       	ldi	r24, 0x00	; 0
    1062:	08 95       	ret
    1064:	89 2f       	mov	r24, r25
    1066:	08 95       	ret

00001068 <SS_set_high>:
    1068:	8b b1       	in	r24, 0x0b	; 11
    106a:	88 70       	andi	r24, 0x08	; 8
    106c:	8b b9       	out	0x0b, r24	; 11
    106e:	08 95       	ret

00001070 <SS_set_low>:
    1070:	8b b1       	in	r24, 0x0b	; 11
    1072:	1b b8       	out	0x0b, r1	; 11
    1074:	08 95       	ret

00001076 <__vector_12>:
    1076:	1f 92       	push	r1
    1078:	0f 92       	push	r0
    107a:	0f b6       	in	r0, 0x3f	; 63
    107c:	0f 92       	push	r0
    107e:	11 24       	eor	r1, r1
    1080:	8f 93       	push	r24
    1082:	81 e0       	ldi	r24, 0x01	; 1
    1084:	80 93 51 01 	sts	0x0151, r24
    1088:	8f 91       	pop	r24
    108a:	0f 90       	pop	r0
    108c:	0f be       	out	0x3f, r0	; 63
    108e:	0f 90       	pop	r0
    1090:	1f 90       	pop	r1
    1092:	18 95       	reti

00001094 <timer_init>:
    1094:	10 92 6f 00 	sts	0x006F, r1
    1098:	10 92 80 00 	sts	0x0080, r1
    109c:	8a e0       	ldi	r24, 0x0A	; 10
    109e:	80 93 81 00 	sts	0x0081, r24
    10a2:	08 95       	ret

000010a4 <delay_us>:
    10a4:	10 92 51 01 	sts	0x0151, r1
    10a8:	10 92 85 00 	sts	0x0085, r1
    10ac:	10 92 84 00 	sts	0x0084, r1
    10b0:	90 93 89 00 	sts	0x0089, r25
    10b4:	80 93 88 00 	sts	0x0088, r24
    10b8:	82 e0       	ldi	r24, 0x02	; 2
    10ba:	80 93 6f 00 	sts	0x006F, r24
    10be:	80 91 51 01 	lds	r24, 0x0151
    10c2:	88 23       	and	r24, r24
    10c4:	e1 f3       	breq	.-8      	; 0x10be <delay_us+0x1a>
    10c6:	08 95       	ret

000010c8 <delay_ms>:
    10c8:	0f 93       	push	r16
    10ca:	1f 93       	push	r17
    10cc:	cf 93       	push	r28
    10ce:	df 93       	push	r29
    10d0:	8c 01       	movw	r16, r24
    10d2:	c0 e0       	ldi	r28, 0x00	; 0
    10d4:	d0 e0       	ldi	r29, 0x00	; 0
    10d6:	c0 17       	cp	r28, r16
    10d8:	d1 07       	cpc	r29, r17
    10da:	31 f0       	breq	.+12     	; 0x10e8 <delay_ms+0x20>
    10dc:	88 ee       	ldi	r24, 0xE8	; 232
    10de:	93 e0       	ldi	r25, 0x03	; 3
    10e0:	0e 94 52 08 	call	0x10a4	; 0x10a4 <delay_us>
    10e4:	21 96       	adiw	r28, 0x01	; 1
    10e6:	f7 cf       	rjmp	.-18     	; 0x10d6 <delay_ms+0xe>
    10e8:	df 91       	pop	r29
    10ea:	cf 91       	pop	r28
    10ec:	1f 91       	pop	r17
    10ee:	0f 91       	pop	r16
    10f0:	08 95       	ret

000010f2 <reg_read>:
    10f2:	0e 94 14 08 	call	0x1028	; 0x1028 <spi_transfer>
    10f6:	80 e0       	ldi	r24, 0x00	; 0
    10f8:	0c 94 14 08 	jmp	0x1028	; 0x1028 <spi_transfer>

000010fc <reg_write>:
    10fc:	cf 93       	push	r28
    10fe:	df 93       	push	r29
    1100:	1f 92       	push	r1
    1102:	cd b7       	in	r28, 0x3d	; 61
    1104:	de b7       	in	r29, 0x3e	; 62
    1106:	69 83       	std	Y+1, r22	; 0x01
    1108:	0e 94 14 08 	call	0x1028	; 0x1028 <spi_transfer>
    110c:	69 81       	ldd	r22, Y+1	; 0x01
    110e:	86 2f       	mov	r24, r22
    1110:	0f 90       	pop	r0
    1112:	df 91       	pop	r29
    1114:	cf 91       	pop	r28
    1116:	0c 94 14 08 	jmp	0x1028	; 0x1028 <spi_transfer>

0000111a <reg_read2F>:
    111a:	cf 93       	push	r28
    111c:	c8 2f       	mov	r28, r24
    111e:	87 e5       	ldi	r24, 0x57	; 87
    1120:	0e 94 14 08 	call	0x1028	; 0x1028 <spi_transfer>
    1124:	8c 2f       	mov	r24, r28
    1126:	0e 94 14 08 	call	0x1028	; 0x1028 <spi_transfer>
    112a:	80 e0       	ldi	r24, 0x00	; 0
    112c:	cf 91       	pop	r28
    112e:	0c 94 14 08 	jmp	0x1028	; 0x1028 <spi_transfer>

00001132 <reg_write2F>:
    1132:	1f 93       	push	r17
    1134:	cf 93       	push	r28
    1136:	df 93       	push	r29
    1138:	1f 92       	push	r1
    113a:	cd b7       	in	r28, 0x3d	; 61
    113c:	de b7       	in	r29, 0x3e	; 62
    113e:	18 2f       	mov	r17, r24
    1140:	87 e5       	ldi	r24, 0x57	; 87
    1142:	69 83       	std	Y+1, r22	; 0x01
    1144:	0e 94 14 08 	call	0x1028	; 0x1028 <spi_transfer>
    1148:	81 2f       	mov	r24, r17
    114a:	0e 94 14 08 	call	0x1028	; 0x1028 <spi_transfer>
    114e:	69 81       	ldd	r22, Y+1	; 0x01
    1150:	86 2f       	mov	r24, r22
    1152:	0f 90       	pop	r0
    1154:	df 91       	pop	r29
    1156:	cf 91       	pop	r28
    1158:	1f 91       	pop	r17
    115a:	0c 94 14 08 	jmp	0x1028	; 0x1028 <spi_transfer>

0000115e <get_status>:
    115e:	0f 93       	push	r16
    1160:	1f 93       	push	r17
    1162:	cf 93       	push	r28
    1164:	df 93       	push	r29
    1166:	ec 01       	movw	r28, r24
    1168:	8b 01       	movw	r16, r22
    116a:	8d e3       	ldi	r24, 0x3D	; 61
    116c:	0e 94 14 08 	call	0x1028	; 0x1028 <spi_transfer>
    1170:	98 2f       	mov	r25, r24
    1172:	99 1f       	adc	r25, r25
    1174:	99 27       	eor	r25, r25
    1176:	99 1f       	adc	r25, r25
    1178:	98 83       	st	Y, r25
    117a:	82 95       	swap	r24
    117c:	87 70       	andi	r24, 0x07	; 7
    117e:	f8 01       	movw	r30, r16
    1180:	80 83       	st	Z, r24
    1182:	df 91       	pop	r29
    1184:	cf 91       	pop	r28
    1186:	1f 91       	pop	r17
    1188:	0f 91       	pop	r16
    118a:	08 95       	ret

0000118c <cmd_str>:
    118c:	0c 94 14 08 	jmp	0x1028	; 0x1028 <spi_transfer>

00001190 <dir_FIFO_read>:
    1190:	cf 93       	push	r28
    1192:	c8 2f       	mov	r28, r24
    1194:	8e eb       	ldi	r24, 0xBE	; 190
    1196:	0e 94 14 08 	call	0x1028	; 0x1028 <spi_transfer>
    119a:	8c 2f       	mov	r24, r28
    119c:	0e 94 14 08 	call	0x1028	; 0x1028 <spi_transfer>
    11a0:	80 e0       	ldi	r24, 0x00	; 0
    11a2:	cf 91       	pop	r28
    11a4:	0c 94 14 08 	jmp	0x1028	; 0x1028 <spi_transfer>

000011a8 <monitor_LEDs>:
    11a8:	cf 93       	push	r28
    11aa:	df 93       	push	r29
    11ac:	00 d0       	rcall	.+0      	; 0x11ae <monitor_LEDs+0x6>
    11ae:	cd b7       	in	r28, 0x3d	; 61
    11b0:	de b7       	in	r29, 0x3e	; 62
    11b2:	be 01       	movw	r22, r28
    11b4:	6f 5f       	subi	r22, 0xFF	; 255
    11b6:	7f 4f       	sbci	r23, 0xFF	; 255
    11b8:	ce 01       	movw	r24, r28
    11ba:	02 96       	adiw	r24, 0x02	; 2
    11bc:	0e 94 af 08 	call	0x115e	; 0x115e <get_status>
    11c0:	8a 81       	ldd	r24, Y+2	; 0x02
    11c2:	81 11       	cpse	r24, r1
    11c4:	03 c0       	rjmp	.+6      	; 0x11cc <monitor_LEDs+0x24>
    11c6:	89 81       	ldd	r24, Y+1	; 0x01
    11c8:	86 30       	cpi	r24, 0x06	; 6
    11ca:	71 f4       	brne	.+28     	; 0x11e8 <monitor_LEDs+0x40>
    11cc:	86 e0       	ldi	r24, 0x06	; 6
    11ce:	0e 94 19 07 	call	0xe32	; 0xe32 <LED_toggle>
    11d2:	84 e6       	ldi	r24, 0x64	; 100
    11d4:	90 e0       	ldi	r25, 0x00	; 0
    11d6:	0e 94 64 08 	call	0x10c8	; 0x10c8 <delay_ms>
    11da:	86 e0       	ldi	r24, 0x06	; 6
    11dc:	0e 94 19 07 	call	0xe32	; 0xe32 <LED_toggle>
    11e0:	84 e6       	ldi	r24, 0x64	; 100
    11e2:	90 e0       	ldi	r25, 0x00	; 0
    11e4:	0e 94 64 08 	call	0x10c8	; 0x10c8 <delay_ms>
    11e8:	89 81       	ldd	r24, Y+1	; 0x01
    11ea:	81 30       	cpi	r24, 0x01	; 1
    11ec:	71 f4       	brne	.+28     	; 0x120a <monitor_LEDs+0x62>
    11ee:	87 e0       	ldi	r24, 0x07	; 7
    11f0:	0e 94 19 07 	call	0xe32	; 0xe32 <LED_toggle>
    11f4:	84 e6       	ldi	r24, 0x64	; 100
    11f6:	90 e0       	ldi	r25, 0x00	; 0
    11f8:	0e 94 64 08 	call	0x10c8	; 0x10c8 <delay_ms>
    11fc:	87 e0       	ldi	r24, 0x07	; 7
    11fe:	0e 94 19 07 	call	0xe32	; 0xe32 <LED_toggle>
    1202:	84 e6       	ldi	r24, 0x64	; 100
    1204:	90 e0       	ldi	r25, 0x00	; 0
    1206:	0e 94 64 08 	call	0x10c8	; 0x10c8 <delay_ms>
    120a:	0f 90       	pop	r0
    120c:	0f 90       	pop	r0
    120e:	df 91       	pop	r29
    1210:	cf 91       	pop	r28
    1212:	08 95       	ret

00001214 <reg_write_bit>:
    1214:	1f 93       	push	r17
    1216:	cf 93       	push	r28
    1218:	df 93       	push	r29
    121a:	00 d0       	rcall	.+0      	; 0x121c <reg_write_bit+0x8>
    121c:	cd b7       	in	r28, 0x3d	; 61
    121e:	de b7       	in	r29, 0x3e	; 62
    1220:	18 2f       	mov	r17, r24
    1222:	4a 83       	std	Y+2, r20	; 0x02
    1224:	69 83       	std	Y+1, r22	; 0x01
    1226:	0e 94 79 08 	call	0x10f2	; 0x10f2 <reg_read>
    122a:	28 2f       	mov	r18, r24
    122c:	52 e0       	ldi	r21, 0x02	; 2
    122e:	69 81       	ldd	r22, Y+1	; 0x01
    1230:	56 27       	eor	r21, r22
    1232:	4a 81       	ldd	r20, Y+2	; 0x02
    1234:	54 9f       	mul	r21, r20
    1236:	80 0d       	add	r24, r0
    1238:	11 24       	eor	r1, r1
    123a:	48 2f       	mov	r20, r24
    123c:	82 2f       	mov	r24, r18
    123e:	65 2f       	mov	r22, r21
    1240:	0e 94 11 0b 	call	0x1622	; 0x1622 <__udivmodqi4>
    1244:	49 0f       	add	r20, r25
    1246:	82 2f       	mov	r24, r18
    1248:	90 e0       	ldi	r25, 0x00	; 0
    124a:	65 2f       	mov	r22, r21
    124c:	70 e0       	ldi	r23, 0x00	; 0
    124e:	66 0f       	add	r22, r22
    1250:	77 1f       	adc	r23, r23
    1252:	0e 94 1d 0b 	call	0x163a	; 0x163a <__divmodhi4>
    1256:	48 1b       	sub	r20, r24
    1258:	64 2f       	mov	r22, r20
    125a:	81 2f       	mov	r24, r17
    125c:	0f 90       	pop	r0
    125e:	0f 90       	pop	r0
    1260:	df 91       	pop	r29
    1262:	cf 91       	pop	r28
    1264:	1f 91       	pop	r17
    1266:	0c 94 7e 08 	jmp	0x10fc	; 0x10fc <reg_write>

0000126a <reg_write_bit2F>:
    126a:	1f 93       	push	r17
    126c:	cf 93       	push	r28
    126e:	df 93       	push	r29
    1270:	00 d0       	rcall	.+0      	; 0x1272 <reg_write_bit2F+0x8>
    1272:	cd b7       	in	r28, 0x3d	; 61
    1274:	de b7       	in	r29, 0x3e	; 62
    1276:	18 2f       	mov	r17, r24
    1278:	4a 83       	std	Y+2, r20	; 0x02
    127a:	69 83       	std	Y+1, r22	; 0x01
    127c:	0e 94 8d 08 	call	0x111a	; 0x111a <reg_read2F>
    1280:	28 2f       	mov	r18, r24
    1282:	52 e0       	ldi	r21, 0x02	; 2
    1284:	69 81       	ldd	r22, Y+1	; 0x01
    1286:	56 27       	eor	r21, r22
    1288:	4a 81       	ldd	r20, Y+2	; 0x02
    128a:	54 9f       	mul	r21, r20
    128c:	80 0d       	add	r24, r0
    128e:	11 24       	eor	r1, r1
    1290:	48 2f       	mov	r20, r24
    1292:	82 2f       	mov	r24, r18
    1294:	65 2f       	mov	r22, r21
    1296:	0e 94 11 0b 	call	0x1622	; 0x1622 <__udivmodqi4>
    129a:	49 0f       	add	r20, r25
    129c:	82 2f       	mov	r24, r18
    129e:	90 e0       	ldi	r25, 0x00	; 0
    12a0:	65 2f       	mov	r22, r21
    12a2:	70 e0       	ldi	r23, 0x00	; 0
    12a4:	66 0f       	add	r22, r22
    12a6:	77 1f       	adc	r23, r23
    12a8:	0e 94 1d 0b 	call	0x163a	; 0x163a <__divmodhi4>
    12ac:	48 1b       	sub	r20, r24
    12ae:	64 2f       	mov	r22, r20
    12b0:	81 2f       	mov	r24, r17
    12b2:	0f 90       	pop	r0
    12b4:	0f 90       	pop	r0
    12b6:	df 91       	pop	r29
    12b8:	cf 91       	pop	r28
    12ba:	1f 91       	pop	r17
    12bc:	0c 94 99 08 	jmp	0x1132	; 0x1132 <reg_write2F>

000012c0 <transceiver_initialize>:
    12c0:	0e 94 38 08 	call	0x1070	; 0x1070 <SS_set_low>
    12c4:	80 e3       	ldi	r24, 0x30	; 48
    12c6:	0e 94 c6 08 	call	0x118c	; 0x118c <cmd_str>
    12ca:	86 e3       	ldi	r24, 0x36	; 54
    12cc:	0e 94 c6 08 	call	0x118c	; 0x118c <cmd_str>
    12d0:	8a e3       	ldi	r24, 0x3A	; 58
    12d2:	0e 94 c6 08 	call	0x118c	; 0x118c <cmd_str>
    12d6:	8b e3       	ldi	r24, 0x3B	; 59
    12d8:	0e 94 c6 08 	call	0x118c	; 0x118c <cmd_str>
    12dc:	60 e0       	ldi	r22, 0x00	; 0
    12de:	82 e1       	ldi	r24, 0x12	; 18
    12e0:	0e 94 99 08 	call	0x1132	; 0x1132 <reg_write2F>
    12e4:	6f e5       	ldi	r22, 0x5F	; 95
    12e6:	83 e1       	ldi	r24, 0x13	; 19
    12e8:	0e 94 99 08 	call	0x1132	; 0x1132 <reg_write2F>
    12ec:	60 e4       	ldi	r22, 0x40	; 64
    12ee:	86 e1       	ldi	r24, 0x16	; 22
    12f0:	0e 94 99 08 	call	0x1132	; 0x1132 <reg_write2F>
    12f4:	6e e0       	ldi	r22, 0x0E	; 14
    12f6:	87 e1       	ldi	r24, 0x17	; 23
    12f8:	0e 94 99 08 	call	0x1132	; 0x1132 <reg_write2F>
    12fc:	63 e0       	ldi	r22, 0x03	; 3
    12fe:	89 e1       	ldi	r24, 0x19	; 25
    1300:	0e 94 99 08 	call	0x1132	; 0x1132 <reg_write2F>
    1304:	63 e3       	ldi	r22, 0x33	; 51
    1306:	8b e1       	ldi	r24, 0x1B	; 27
    1308:	0e 94 99 08 	call	0x1132	; 0x1132 <reg_write2F>
    130c:	67 e1       	ldi	r22, 0x17	; 23
    130e:	8d e1       	ldi	r24, 0x1D	; 29
    1310:	0e 94 99 08 	call	0x1132	; 0x1132 <reg_write2F>
    1314:	60 e5       	ldi	r22, 0x50	; 80
    1316:	8f e1       	ldi	r24, 0x1F	; 31
    1318:	0e 94 99 08 	call	0x1132	; 0x1132 <reg_write2F>
    131c:	6e e6       	ldi	r22, 0x6E	; 110
    131e:	80 e2       	ldi	r24, 0x20	; 32
    1320:	0e 94 99 08 	call	0x1132	; 0x1132 <reg_write2F>
    1324:	64 e1       	ldi	r22, 0x14	; 20
    1326:	81 e2       	ldi	r24, 0x21	; 33
    1328:	0e 94 99 08 	call	0x1132	; 0x1132 <reg_write2F>
    132c:	6c ea       	ldi	r22, 0xAC	; 172
    132e:	82 e2       	ldi	r24, 0x22	; 34
    1330:	0e 94 99 08 	call	0x1132	; 0x1132 <reg_write2F>
    1334:	64 eb       	ldi	r22, 0xB4	; 180
    1336:	87 e2       	ldi	r24, 0x27	; 39
    1338:	0e 94 99 08 	call	0x1132	; 0x1132 <reg_write2F>
    133c:	6e e0       	ldi	r22, 0x0E	; 14
    133e:	82 e3       	ldi	r24, 0x32	; 50
    1340:	0e 94 99 08 	call	0x1132	; 0x1132 <reg_write2F>
    1344:	63 e0       	ldi	r22, 0x03	; 3
    1346:	86 e3       	ldi	r24, 0x36	; 54
    1348:	0e 94 99 08 	call	0x1132	; 0x1132 <reg_write2F>
    134c:	64 e0       	ldi	r22, 0x04	; 4
    134e:	80 e0       	ldi	r24, 0x00	; 0
    1350:	0e 94 99 08 	call	0x1132	; 0x1132 <reg_write2F>
    1354:	60 e0       	ldi	r22, 0x00	; 0
    1356:	83 e0       	ldi	r24, 0x03	; 3
    1358:	0e 94 99 08 	call	0x1132	; 0x1132 <reg_write2F>
    135c:	60 e0       	ldi	r22, 0x00	; 0
    135e:	89 e0       	ldi	r24, 0x09	; 9
    1360:	0e 94 99 08 	call	0x1132	; 0x1132 <reg_write2F>
    1364:	62 e0       	ldi	r22, 0x02	; 2
    1366:	8f e0       	ldi	r24, 0x0F	; 15
    1368:	0e 94 99 08 	call	0x1132	; 0x1132 <reg_write2F>
    136c:	66 ea       	ldi	r22, 0xA6	; 166
    136e:	80 e1       	ldi	r24, 0x10	; 16
    1370:	0e 94 99 08 	call	0x1132	; 0x1132 <reg_write2F>
    1374:	64 e0       	ldi	r22, 0x04	; 4
    1376:	81 e1       	ldi	r24, 0x11	; 17
    1378:	0e 94 99 08 	call	0x1132	; 0x1132 <reg_write2F>
    137c:	60 e0       	ldi	r22, 0x00	; 0
    137e:	8a e1       	ldi	r24, 0x1A	; 26
    1380:	0e 94 99 08 	call	0x1132	; 0x1132 <reg_write2F>
    1384:	6f ef       	ldi	r22, 0xFF	; 255
    1386:	8c e1       	ldi	r24, 0x1C	; 28
    1388:	0e 94 99 08 	call	0x1132	; 0x1132 <reg_write2F>
    138c:	60 e0       	ldi	r22, 0x00	; 0
    138e:	8e e1       	ldi	r24, 0x1E	; 30
    1390:	0e 94 99 08 	call	0x1132	; 0x1132 <reg_write2F>
    1394:	6e e6       	ldi	r22, 0x6E	; 110
    1396:	80 e2       	ldi	r24, 0x20	; 32
    1398:	0e 94 99 08 	call	0x1132	; 0x1132 <reg_write2F>
    139c:	64 e1       	ldi	r22, 0x14	; 20
    139e:	83 e2       	ldi	r24, 0x23	; 35
    13a0:	0e 94 99 08 	call	0x1132	; 0x1132 <reg_write2F>
    13a4:	60 e0       	ldi	r22, 0x00	; 0
    13a6:	84 e2       	ldi	r24, 0x24	; 36
    13a8:	0e 94 99 08 	call	0x1132	; 0x1132 <reg_write2F>
    13ac:	60 e0       	ldi	r22, 0x00	; 0
    13ae:	88 e2       	ldi	r24, 0x28	; 40
    13b0:	0e 94 99 08 	call	0x1132	; 0x1132 <reg_write2F>
    13b4:	62 e0       	ldi	r22, 0x02	; 2
    13b6:	89 e2       	ldi	r24, 0x29	; 41
    13b8:	0e 94 99 08 	call	0x1132	; 0x1132 <reg_write2F>
    13bc:	60 e0       	ldi	r22, 0x00	; 0
    13be:	8a e2       	ldi	r24, 0x2A	; 42
    13c0:	0e 94 99 08 	call	0x1132	; 0x1132 <reg_write2F>
    13c4:	60 e0       	ldi	r22, 0x00	; 0
    13c6:	8b e2       	ldi	r24, 0x2B	; 43
    13c8:	0e 94 99 08 	call	0x1132	; 0x1132 <reg_write2F>
    13cc:	60 e1       	ldi	r22, 0x10	; 16
    13ce:	8c e2       	ldi	r24, 0x2C	; 44
    13d0:	0e 94 99 08 	call	0x1132	; 0x1132 <reg_write2F>
    13d4:	60 e0       	ldi	r22, 0x00	; 0
    13d6:	8d e2       	ldi	r24, 0x2D	; 45
    13d8:	0e 94 99 08 	call	0x1132	; 0x1132 <reg_write2F>
    13dc:	60 e0       	ldi	r22, 0x00	; 0
    13de:	8e e2       	ldi	r24, 0x2E	; 46
    13e0:	0e 94 99 08 	call	0x1132	; 0x1132 <reg_write2F>
    13e4:	61 e0       	ldi	r22, 0x01	; 1
    13e6:	8f e2       	ldi	r24, 0x2F	; 47
    13e8:	0e 94 99 08 	call	0x1132	; 0x1132 <reg_write2F>
    13ec:	61 e0       	ldi	r22, 0x01	; 1
    13ee:	80 e3       	ldi	r24, 0x30	; 48
    13f0:	0e 94 99 08 	call	0x1132	; 0x1132 <reg_write2F>
    13f4:	61 e0       	ldi	r22, 0x01	; 1
    13f6:	81 e3       	ldi	r24, 0x31	; 49
    13f8:	0e 94 99 08 	call	0x1132	; 0x1132 <reg_write2F>
    13fc:	60 ea       	ldi	r22, 0xA0	; 160
    13fe:	83 e3       	ldi	r24, 0x33	; 51
    1400:	0e 94 99 08 	call	0x1132	; 0x1132 <reg_write2F>
    1404:	63 e0       	ldi	r22, 0x03	; 3
    1406:	84 e3       	ldi	r24, 0x34	; 52
    1408:	0e 94 99 08 	call	0x1132	; 0x1132 <reg_write2F>
    140c:	60 e0       	ldi	r22, 0x00	; 0
    140e:	88 e3       	ldi	r24, 0x38	; 56
    1410:	0e 94 99 08 	call	0x1132	; 0x1132 <reg_write2F>
    1414:	60 e0       	ldi	r22, 0x00	; 0
    1416:	89 e3       	ldi	r24, 0x39	; 57
    1418:	0e 94 99 08 	call	0x1132	; 0x1132 <reg_write2F>
    141c:	60 e0       	ldi	r22, 0x00	; 0
    141e:	88 e6       	ldi	r24, 0x68	; 104
    1420:	0e 94 99 08 	call	0x1132	; 0x1132 <reg_write2F>
    1424:	60 e0       	ldi	r22, 0x00	; 0
    1426:	8b e7       	ldi	r24, 0x7B	; 123
    1428:	0e 94 99 08 	call	0x1132	; 0x1132 <reg_write2F>
    142c:	6f e3       	ldi	r22, 0x3F	; 63
    142e:	8c e7       	ldi	r24, 0x7C	; 124
    1430:	0e 94 99 08 	call	0x1132	; 0x1132 <reg_write2F>
    1434:	60 e0       	ldi	r22, 0x00	; 0
    1436:	86 e9       	ldi	r24, 0x96	; 150
    1438:	0e 94 99 08 	call	0x1132	; 0x1132 <reg_write2F>
    143c:	60 e0       	ldi	r22, 0x00	; 0
    143e:	87 e9       	ldi	r24, 0x97	; 151
    1440:	0e 94 99 08 	call	0x1132	; 0x1132 <reg_write2F>
    1444:	60 e0       	ldi	r22, 0x00	; 0
    1446:	88 e9       	ldi	r24, 0x98	; 152
    1448:	0e 94 99 08 	call	0x1132	; 0x1132 <reg_write2F>
    144c:	60 e0       	ldi	r22, 0x00	; 0
    144e:	89 e9       	ldi	r24, 0x99	; 153
    1450:	0e 94 99 08 	call	0x1132	; 0x1132 <reg_write2F>
    1454:	60 e0       	ldi	r22, 0x00	; 0
    1456:	8a e9       	ldi	r24, 0x9A	; 154
    1458:	0e 94 99 08 	call	0x1132	; 0x1132 <reg_write2F>
    145c:	6b e0       	ldi	r22, 0x0B	; 11
    145e:	8b e9       	ldi	r24, 0x9B	; 155
    1460:	0e 94 99 08 	call	0x1132	; 0x1132 <reg_write2F>
    1464:	60 e4       	ldi	r22, 0x40	; 64
    1466:	8c e9       	ldi	r24, 0x9C	; 156
    1468:	0e 94 99 08 	call	0x1132	; 0x1132 <reg_write2F>
    146c:	60 e0       	ldi	r22, 0x00	; 0
    146e:	8d e9       	ldi	r24, 0x9D	; 157
    1470:	0e 94 99 08 	call	0x1132	; 0x1132 <reg_write2F>
    1474:	60 e0       	ldi	r22, 0x00	; 0
    1476:	8e e9       	ldi	r24, 0x9E	; 158
    1478:	0e 94 99 08 	call	0x1132	; 0x1132 <reg_write2F>
    147c:	6c e3       	ldi	r22, 0x3C	; 60
    147e:	8f e9       	ldi	r24, 0x9F	; 159
    1480:	0e 94 99 08 	call	0x1132	; 0x1132 <reg_write2F>
    1484:	60 e0       	ldi	r22, 0x00	; 0
    1486:	80 ea       	ldi	r24, 0xA0	; 160
    1488:	0e 94 99 08 	call	0x1132	; 0x1132 <reg_write2F>
    148c:	6b e0       	ldi	r22, 0x0B	; 11
    148e:	88 e0       	ldi	r24, 0x08	; 8
    1490:	0e 94 7e 08 	call	0x10fc	; 0x10fc <reg_write>
    1494:	6d e0       	ldi	r22, 0x0D	; 13
    1496:	83 e1       	ldi	r24, 0x13	; 19
    1498:	0e 94 7e 08 	call	0x10fc	; 0x10fc <reg_write>
    149c:	64 e0       	ldi	r22, 0x04	; 4
    149e:	86 e2       	ldi	r24, 0x26	; 38
    14a0:	0e 94 7e 08 	call	0x10fc	; 0x10fc <reg_write>
    14a4:	60 e0       	ldi	r22, 0x00	; 0
    14a6:	88 e2       	ldi	r24, 0x28	; 40
    14a8:	0e 94 7e 08 	call	0x10fc	; 0x10fc <reg_write>
    14ac:	6f e7       	ldi	r22, 0x7F	; 127
    14ae:	8b e2       	ldi	r24, 0x2B	; 43
    14b0:	0e 94 7e 08 	call	0x10fc	; 0x10fc <reg_write>
    14b4:	60 e0       	ldi	r22, 0x00	; 0
    14b6:	85 e0       	ldi	r24, 0x05	; 5
    14b8:	0e 94 99 08 	call	0x1132	; 0x1132 <reg_write2F>
    14bc:	60 e0       	ldi	r22, 0x00	; 0
    14be:	84 e1       	ldi	r24, 0x14	; 20
    14c0:	0e 94 99 08 	call	0x1132	; 0x1132 <reg_write2F>
    14c4:	60 e0       	ldi	r22, 0x00	; 0
    14c6:	86 e2       	ldi	r24, 0x26	; 38
    14c8:	0e 94 99 08 	call	0x1132	; 0x1132 <reg_write2F>
    14cc:	64 e0       	ldi	r22, 0x04	; 4
    14ce:	85 e3       	ldi	r24, 0x35	; 53
    14d0:	0e 94 99 08 	call	0x1132	; 0x1132 <reg_write2F>
    14d4:	61 ed       	ldi	r22, 0xD1	; 209
    14d6:	8a e7       	ldi	r24, 0x7A	; 122
    14d8:	0e 94 99 08 	call	0x1132	; 0x1132 <reg_write2F>
    14dc:	61 e0       	ldi	r22, 0x01	; 1
    14de:	8d e8       	ldi	r24, 0x8D	; 141
    14e0:	0e 94 99 08 	call	0x1132	; 0x1132 <reg_write2F>
    14e4:	6b e0       	ldi	r22, 0x0B	; 11
    14e6:	88 e0       	ldi	r24, 0x08	; 8
    14e8:	0e 94 7e 08 	call	0x10fc	; 0x10fc <reg_write>
    14ec:	6c e1       	ldi	r22, 0x1C	; 28
    14ee:	8c e0       	ldi	r24, 0x0C	; 12
    14f0:	0e 94 7e 08 	call	0x10fc	; 0x10fc <reg_write>
    14f4:	60 e0       	ldi	r22, 0x00	; 0
    14f6:	80 e1       	ldi	r24, 0x10	; 16
    14f8:	0e 94 7e 08 	call	0x10fc	; 0x10fc <reg_write>
    14fc:	64 e0       	ldi	r22, 0x04	; 4
    14fe:	81 e1       	ldi	r24, 0x11	; 17
    1500:	0e 94 7e 08 	call	0x10fc	; 0x10fc <reg_write>
    1504:	65 e0       	ldi	r22, 0x05	; 5
    1506:	83 e1       	ldi	r24, 0x13	; 19
    1508:	0e 94 7e 08 	call	0x10fc	; 0x10fc <reg_write>
    150c:	69 ea       	ldi	r22, 0xA9	; 169
    150e:	8c e1       	ldi	r24, 0x1C	; 28
    1510:	0e 94 7e 08 	call	0x10fc	; 0x10fc <reg_write>
    1514:	6f ec       	ldi	r22, 0xCF	; 207
    1516:	8d e1       	ldi	r24, 0x1D	; 29
    1518:	0e 94 7e 08 	call	0x10fc	; 0x10fc <reg_write>
    151c:	60 e0       	ldi	r22, 0x00	; 0
    151e:	8e e1       	ldi	r24, 0x1E	; 30
    1520:	0e 94 7e 08 	call	0x10fc	; 0x10fc <reg_write>
    1524:	63 e0       	ldi	r22, 0x03	; 3
    1526:	80 e2       	ldi	r24, 0x20	; 32
    1528:	0e 94 7e 08 	call	0x10fc	; 0x10fc <reg_write>
    152c:	60 e0       	ldi	r22, 0x00	; 0
    152e:	8e e2       	ldi	r24, 0x2E	; 46
    1530:	0e 94 7e 08 	call	0x10fc	; 0x10fc <reg_write>
    1534:	60 e0       	ldi	r22, 0x00	; 0
    1536:	80 e0       	ldi	r24, 0x00	; 0
    1538:	0e 94 99 08 	call	0x1132	; 0x1132 <reg_write2F>
    153c:	68 e4       	ldi	r22, 0x48	; 72
    153e:	8a e0       	ldi	r24, 0x0A	; 10
    1540:	0e 94 7e 08 	call	0x10fc	; 0x10fc <reg_write>
    1544:	65 e0       	ldi	r22, 0x05	; 5
    1546:	8b e0       	ldi	r24, 0x0B	; 11
    1548:	0e 94 7e 08 	call	0x10fc	; 0x10fc <reg_write>
    154c:	64 e0       	ldi	r22, 0x04	; 4
    154e:	81 e2       	ldi	r24, 0x21	; 33
    1550:	0e 94 7e 08 	call	0x10fc	; 0x10fc <reg_write>
    1554:	60 e0       	ldi	r22, 0x00	; 0
    1556:	8d e0       	ldi	r24, 0x0D	; 13
    1558:	0e 94 7e 08 	call	0x10fc	; 0x10fc <reg_write>
    155c:	40 e0       	ldi	r20, 0x00	; 0
    155e:	65 e0       	ldi	r22, 0x05	; 5
    1560:	8e e0       	ldi	r24, 0x0E	; 14
    1562:	0e 94 0a 09 	call	0x1214	; 0x1214 <reg_write_bit>
    1566:	40 e0       	ldi	r20, 0x00	; 0
    1568:	67 e0       	ldi	r22, 0x07	; 7
    156a:	82 e0       	ldi	r24, 0x02	; 2
    156c:	0e 94 35 09 	call	0x126a	; 0x126a <reg_write_bit2F>
    1570:	40 e0       	ldi	r20, 0x00	; 0
    1572:	66 e0       	ldi	r22, 0x06	; 6
    1574:	82 e0       	ldi	r24, 0x02	; 2
    1576:	0e 94 35 09 	call	0x126a	; 0x126a <reg_write_bit2F>
    157a:	40 e0       	ldi	r20, 0x00	; 0
    157c:	66 e0       	ldi	r22, 0x06	; 6
    157e:	88 e0       	ldi	r24, 0x08	; 8
    1580:	0e 94 0a 09 	call	0x1214	; 0x1214 <reg_write_bit>
    1584:	67 e1       	ldi	r22, 0x17	; 23
    1586:	89 e0       	ldi	r24, 0x09	; 9
    1588:	0e 94 7e 08 	call	0x10fc	; 0x10fc <reg_write>
    158c:	63 e9       	ldi	r22, 0x93	; 147
    158e:	84 e0       	ldi	r24, 0x04	; 4
    1590:	0e 94 7e 08 	call	0x10fc	; 0x10fc <reg_write>
    1594:	6b e0       	ldi	r22, 0x0B	; 11
    1596:	85 e0       	ldi	r24, 0x05	; 5
    1598:	0e 94 7e 08 	call	0x10fc	; 0x10fc <reg_write>
    159c:	61 e5       	ldi	r22, 0x51	; 81
    159e:	86 e0       	ldi	r24, 0x06	; 6
    15a0:	0e 94 7e 08 	call	0x10fc	; 0x10fc <reg_write>
    15a4:	6e ed       	ldi	r22, 0xDE	; 222
    15a6:	87 e0       	ldi	r24, 0x07	; 7
    15a8:	0e 94 7e 08 	call	0x10fc	; 0x10fc <reg_write>
    15ac:	41 e0       	ldi	r20, 0x01	; 1
    15ae:	66 e0       	ldi	r22, 0x06	; 6
    15b0:	82 e1       	ldi	r24, 0x12	; 18
    15b2:	0e 94 0a 09 	call	0x1214	; 0x1214 <reg_write_bit>
    15b6:	40 e0       	ldi	r20, 0x00	; 0
    15b8:	66 e0       	ldi	r22, 0x06	; 6
    15ba:	83 e1       	ldi	r24, 0x13	; 19
    15bc:	0e 94 0a 09 	call	0x1214	; 0x1214 <reg_write_bit>
    15c0:	60 e0       	ldi	r22, 0x00	; 0
    15c2:	86 e2       	ldi	r24, 0x26	; 38
    15c4:	0e 94 7e 08 	call	0x10fc	; 0x10fc <reg_write>
    15c8:	60 e0       	ldi	r22, 0x00	; 0
    15ca:	88 e2       	ldi	r24, 0x28	; 40
    15cc:	0e 94 7e 08 	call	0x10fc	; 0x10fc <reg_write>
    15d0:	6f ef       	ldi	r22, 0xFF	; 255
    15d2:	8e e2       	ldi	r24, 0x2E	; 46
    15d4:	0e 94 7e 08 	call	0x10fc	; 0x10fc <reg_write>
    15d8:	6f e7       	ldi	r22, 0x7F	; 127
    15da:	8b e2       	ldi	r24, 0x2B	; 43
    15dc:	0e 94 7e 08 	call	0x10fc	; 0x10fc <reg_write>
    15e0:	60 e0       	ldi	r22, 0x00	; 0
    15e2:	8a e0       	ldi	r24, 0x0A	; 10
    15e4:	0e 94 99 08 	call	0x1132	; 0x1132 <reg_write2F>
    15e8:	60 e0       	ldi	r22, 0x00	; 0
    15ea:	8b e0       	ldi	r24, 0x0B	; 11
    15ec:	0e 94 99 08 	call	0x1132	; 0x1132 <reg_write2F>
    15f0:	6c e6       	ldi	r22, 0x6C	; 108
    15f2:	8c e0       	ldi	r24, 0x0C	; 12
    15f4:	0e 94 99 08 	call	0x1132	; 0x1132 <reg_write2F>
    15f8:	60 e8       	ldi	r22, 0x80	; 128
    15fa:	8d e0       	ldi	r24, 0x0D	; 13
    15fc:	0e 94 99 08 	call	0x1132	; 0x1132 <reg_write2F>
    1600:	60 e0       	ldi	r22, 0x00	; 0
    1602:	8e e0       	ldi	r24, 0x0E	; 14
    1604:	0e 94 99 08 	call	0x1132	; 0x1132 <reg_write2F>
    1608:	61 e1       	ldi	r22, 0x11	; 17
    160a:	80 e0       	ldi	r24, 0x00	; 0
    160c:	0e 94 7e 08 	call	0x10fc	; 0x10fc <reg_write>
    1610:	83 e3       	ldi	r24, 0x33	; 51
    1612:	0e 94 c6 08 	call	0x118c	; 0x118c <cmd_str>
    1616:	87 e3       	ldi	r24, 0x37	; 55
    1618:	0e 94 c6 08 	call	0x118c	; 0x118c <cmd_str>
    161c:	84 e3       	ldi	r24, 0x34	; 52
    161e:	0c 94 c6 08 	jmp	0x118c	; 0x118c <cmd_str>

00001622 <__udivmodqi4>:
    1622:	99 1b       	sub	r25, r25
    1624:	79 e0       	ldi	r23, 0x09	; 9
    1626:	04 c0       	rjmp	.+8      	; 0x1630 <__udivmodqi4_ep>

00001628 <__udivmodqi4_loop>:
    1628:	99 1f       	adc	r25, r25
    162a:	96 17       	cp	r25, r22
    162c:	08 f0       	brcs	.+2      	; 0x1630 <__udivmodqi4_ep>
    162e:	96 1b       	sub	r25, r22

00001630 <__udivmodqi4_ep>:
    1630:	88 1f       	adc	r24, r24
    1632:	7a 95       	dec	r23
    1634:	c9 f7       	brne	.-14     	; 0x1628 <__udivmodqi4_loop>
    1636:	80 95       	com	r24
    1638:	08 95       	ret

0000163a <__divmodhi4>:
    163a:	97 fb       	bst	r25, 7
    163c:	07 2e       	mov	r0, r23
    163e:	16 f4       	brtc	.+4      	; 0x1644 <__divmodhi4+0xa>
    1640:	00 94       	com	r0
    1642:	07 d0       	rcall	.+14     	; 0x1652 <__divmodhi4_neg1>
    1644:	77 fd       	sbrc	r23, 7
    1646:	09 d0       	rcall	.+18     	; 0x165a <__divmodhi4_neg2>
    1648:	0e 94 37 0b 	call	0x166e	; 0x166e <__udivmodhi4>
    164c:	07 fc       	sbrc	r0, 7
    164e:	05 d0       	rcall	.+10     	; 0x165a <__divmodhi4_neg2>
    1650:	3e f4       	brtc	.+14     	; 0x1660 <__divmodhi4_exit>

00001652 <__divmodhi4_neg1>:
    1652:	90 95       	com	r25
    1654:	81 95       	neg	r24
    1656:	9f 4f       	sbci	r25, 0xFF	; 255
    1658:	08 95       	ret

0000165a <__divmodhi4_neg2>:
    165a:	70 95       	com	r23
    165c:	61 95       	neg	r22
    165e:	7f 4f       	sbci	r23, 0xFF	; 255

00001660 <__divmodhi4_exit>:
    1660:	08 95       	ret

00001662 <__tablejump2__>:
    1662:	ee 0f       	add	r30, r30
    1664:	ff 1f       	adc	r31, r31

00001666 <__tablejump__>:
    1666:	05 90       	lpm	r0, Z+
    1668:	f4 91       	lpm	r31, Z
    166a:	e0 2d       	mov	r30, r0
    166c:	09 94       	ijmp

0000166e <__udivmodhi4>:
    166e:	aa 1b       	sub	r26, r26
    1670:	bb 1b       	sub	r27, r27
    1672:	51 e1       	ldi	r21, 0x11	; 17
    1674:	07 c0       	rjmp	.+14     	; 0x1684 <__udivmodhi4_ep>

00001676 <__udivmodhi4_loop>:
    1676:	aa 1f       	adc	r26, r26
    1678:	bb 1f       	adc	r27, r27
    167a:	a6 17       	cp	r26, r22
    167c:	b7 07       	cpc	r27, r23
    167e:	10 f0       	brcs	.+4      	; 0x1684 <__udivmodhi4_ep>
    1680:	a6 1b       	sub	r26, r22
    1682:	b7 0b       	sbc	r27, r23

00001684 <__udivmodhi4_ep>:
    1684:	88 1f       	adc	r24, r24
    1686:	99 1f       	adc	r25, r25
    1688:	5a 95       	dec	r21
    168a:	a9 f7       	brne	.-22     	; 0x1676 <__udivmodhi4_loop>
    168c:	80 95       	com	r24
    168e:	90 95       	com	r25
    1690:	bc 01       	movw	r22, r24
    1692:	cd 01       	movw	r24, r26
    1694:	08 95       	ret

00001696 <_exit>:
    1696:	f8 94       	cli

00001698 <__stop_program>:
    1698:	ff cf       	rjmp	.-2      	; 0x1698 <__stop_program>
